Archive member included to satisfy reference by file (symbol)

/usr/lib/x86_64-linux-gnu/libc_nonshared.a(elf-init.oS)
                              /usr/lib/gcc/x86_64-linux-gnu/4.9/../../../x86_64-linux-gnu/crt1.o (__libc_csu_init)

As-needed library included to satisfy reference by file (symbol)

ld-linux-x86-64.so.2          testpmd.o (__tls_get_addr@@GLIBC_2.3)

Allocating common symbols
Common symbol       size              file

tx_queue_stats_mappings_array
                    0x10000           testpmd.o
nb_ports            0x1               testpmd.o
fwd_ports_ids       0x20              testpmd.o
nb_cfg_ports        0x1               testpmd.o
fwd_lcores_cpuids   0x200             testpmd.o
rxring_numa         0x20              testpmd.o
nb_fwd_lcores       0x1               testpmd.o
txring_numa         0x20              testpmd.o
port_numa           0x20              testpmd.o
ports               0x8               testpmd.o
rx_queue_stats_mappings_array
                    0x40000           testpmd.o
nb_fwd_ports        0x1               testpmd.o
fwd_streams         0x8               testpmd.o
nb_fwd_streams      0x2               testpmd.o
cur_fwd_config      0x10              testpmd.o
peer_eth_addrs      0xc0              testpmd.o
nb_lcores           0x1               testpmd.o
fwd_lcores          0x8               testpmd.o
nb_cfg_lcores       0x1               testpmd.o

Discarded input sections

 .note.GNU-stack
                0x0000000000000000        0x0 /usr/lib/gcc/x86_64-linux-gnu/4.9/../../../x86_64-linux-gnu/crt1.o
 .gnu_debuglink
                0x0000000000000000        0xc /usr/lib/gcc/x86_64-linux-gnu/4.9/../../../x86_64-linux-gnu/crt1.o
 .note.GNU-stack
                0x0000000000000000        0x0 /usr/lib/gcc/x86_64-linux-gnu/4.9/../../../x86_64-linux-gnu/crti.o
 .gnu_debuglink
                0x0000000000000000        0xc /usr/lib/gcc/x86_64-linux-gnu/4.9/../../../x86_64-linux-gnu/crti.o
 .note.GNU-stack
                0x0000000000000000        0x0 /usr/lib/gcc/x86_64-linux-gnu/4.9/crtbegin.o
 .note.GNU-stack
                0x0000000000000000        0x0 testpmd.o
 .note.GNU-stack
                0x0000000000000000        0x0 parameters.o
 .note.GNU-stack
                0x0000000000000000        0x0 cmdline.o
 .note.GNU-stack
                0x0000000000000000        0x0 config.o
 .note.GNU-stack
                0x0000000000000000        0x0 iofwd.o
 .note.GNU-stack
                0x0000000000000000        0x0 macfwd.o
 .note.GNU-stack
                0x0000000000000000        0x0 macfwd-retry.o
 .note.GNU-stack
                0x0000000000000000        0x0 macswap.o
 .note.GNU-stack
                0x0000000000000000        0x0 flowgen.o
 .note.GNU-stack
                0x0000000000000000        0x0 rxonly.o
 .note.GNU-stack
                0x0000000000000000        0x0 txonly.o
 .note.GNU-stack
                0x0000000000000000        0x0 csumonly.o
 .note.GNU-stack
                0x0000000000000000        0x0 icmpecho.o
 .note.GNU-stack
                0x0000000000000000        0x0 mempool_anon.o
 .note.GNU-stack
                0x0000000000000000        0x0 /usr/lib/x86_64-linux-gnu/libc_nonshared.a(elf-init.oS)
 .note.GNU-stack
                0x0000000000000000        0x0 /usr/lib/gcc/x86_64-linux-gnu/4.9/crtend.o
 .note.GNU-stack
                0x0000000000000000        0x0 /usr/lib/gcc/x86_64-linux-gnu/4.9/../../../x86_64-linux-gnu/crtn.o
 .gnu_debuglink
                0x0000000000000000        0xc /usr/lib/gcc/x86_64-linux-gnu/4.9/../../../x86_64-linux-gnu/crtn.o

Memory Configuration

Name             Origin             Length             Attributes
*default*        0x0000000000000000 0xffffffffffffffff

Linker script and memory map

LOAD /usr/lib/gcc/x86_64-linux-gnu/4.9/../../../x86_64-linux-gnu/crt1.o
LOAD /usr/lib/gcc/x86_64-linux-gnu/4.9/../../../x86_64-linux-gnu/crti.o
LOAD /usr/lib/gcc/x86_64-linux-gnu/4.9/crtbegin.o
LOAD testpmd.o
LOAD parameters.o
LOAD cmdline.o
LOAD config.o
LOAD iofwd.o
LOAD macfwd.o
LOAD macfwd-retry.o
LOAD macswap.o
LOAD flowgen.o
LOAD rxonly.o
LOAD txonly.o
LOAD csumonly.o
LOAD icmpecho.o
LOAD mempool_anon.o
LOAD /home/xyh/test/POFSwitch+DPDK+V1.0.5.3/dpdk-2.2.0/x86_64-native-linuxapp-gcc/lib/libdpdk.so
START GROUP
LOAD /usr/lib/gcc/x86_64-linux-gnu/4.9/../../../x86_64-linux-gnu/librt.so
LOAD /usr/lib/gcc/x86_64-linux-gnu/4.9/../../../x86_64-linux-gnu/libm.so
LOAD /usr/lib/gcc/x86_64-linux-gnu/4.9/libgcc_s.so
LOAD /usr/lib/gcc/x86_64-linux-gnu/4.9/../../../x86_64-linux-gnu/libdl.so
END GROUP
LOAD /usr/lib/gcc/x86_64-linux-gnu/4.9/libgcc.a
LOAD /usr/lib/gcc/x86_64-linux-gnu/4.9/libgcc_s.so
LOAD /usr/lib/gcc/x86_64-linux-gnu/4.9/../../../x86_64-linux-gnu/libpthread.so
START GROUP
LOAD /lib/x86_64-linux-gnu/libpthread.so.0
LOAD /usr/lib/x86_64-linux-gnu/libpthread_nonshared.a
END GROUP
LOAD /usr/lib/gcc/x86_64-linux-gnu/4.9/../../../x86_64-linux-gnu/libc.so
START GROUP
LOAD /lib/x86_64-linux-gnu/libc.so.6
LOAD /usr/lib/x86_64-linux-gnu/libc_nonshared.a
LOAD /lib/x86_64-linux-gnu/ld-linux-x86-64.so.2
END GROUP
LOAD /usr/lib/gcc/x86_64-linux-gnu/4.9/libgcc.a
LOAD /usr/lib/gcc/x86_64-linux-gnu/4.9/libgcc_s.so
LOAD /usr/lib/gcc/x86_64-linux-gnu/4.9/crtend.o
LOAD /usr/lib/gcc/x86_64-linux-gnu/4.9/../../../x86_64-linux-gnu/crtn.o
                [!provide]                        PROVIDE (__executable_start, 0x400000)
                0x0000000000400238                . = (0x400000 + SIZEOF_HEADERS)

.interp         0x0000000000400238       0x1c
 *(.interp)
 .interp        0x0000000000400238       0x1c /usr/lib/gcc/x86_64-linux-gnu/4.9/../../../x86_64-linux-gnu/crt1.o

.note.ABI-tag   0x0000000000400254       0x20
 .note.ABI-tag  0x0000000000400254       0x20 /usr/lib/gcc/x86_64-linux-gnu/4.9/../../../x86_64-linux-gnu/crt1.o

.note.gnu.build-id
                0x0000000000400274       0x24
 *(.note.gnu.build-id)
 .note.gnu.build-id
                0x0000000000400274       0x24 /usr/lib/gcc/x86_64-linux-gnu/4.9/../../../x86_64-linux-gnu/crt1.o

.hash
 *(.hash)

.gnu.hash       0x0000000000400298     0x1ab8
 *(.gnu.hash)
 .gnu.hash      0x0000000000400298     0x1ab8 /usr/lib/gcc/x86_64-linux-gnu/4.9/../../../x86_64-linux-gnu/crt1.o

.dynsym         0x0000000000401d50     0x6768
 *(.dynsym)
 .dynsym        0x0000000000401d50     0x6768 /usr/lib/gcc/x86_64-linux-gnu/4.9/../../../x86_64-linux-gnu/crt1.o

.dynstr         0x00000000004084b8     0x6049
 *(.dynstr)
 .dynstr        0x00000000004084b8     0x6049 /usr/lib/gcc/x86_64-linux-gnu/4.9/../../../x86_64-linux-gnu/crt1.o

.gnu.version    0x000000000040e502      0x89e
 *(.gnu.version)
 .gnu.version   0x000000000040e502      0x89e /usr/lib/gcc/x86_64-linux-gnu/4.9/../../../x86_64-linux-gnu/crt1.o

.gnu.version_d  0x000000000040eda0        0x0
 *(.gnu.version_d)
 .gnu.version_d
                0x000000000040eda0        0x0 /usr/lib/gcc/x86_64-linux-gnu/4.9/../../../x86_64-linux-gnu/crt1.o

.gnu.version_r  0x000000000040eda0       0xe0
 *(.gnu.version_r)
 .gnu.version_r
                0x000000000040eda0       0xe0 /usr/lib/gcc/x86_64-linux-gnu/4.9/../../../x86_64-linux-gnu/crt1.o

.rela.dyn       0x000000000040ee80     0x3c48
 *(.rela.init)
 *(.rela.text .rela.text.* .rela.gnu.linkonce.t.*)
 .rela.text     0x000000000040ee80        0x0 /usr/lib/gcc/x86_64-linux-gnu/4.9/../../../x86_64-linux-gnu/crt1.o
 *(.rela.fini)
 *(.rela.rodata .rela.rodata.* .rela.gnu.linkonce.r.*)
 *(.rela.data .rela.data.* .rela.gnu.linkonce.d.*)
 .rela.data.rel
                0x000000000040ee80     0x3a80 /usr/lib/gcc/x86_64-linux-gnu/4.9/../../../x86_64-linux-gnu/crt1.o
 *(.rela.tdata .rela.tdata.* .rela.gnu.linkonce.td.*)
 *(.rela.tbss .rela.tbss.* .rela.gnu.linkonce.tb.*)
 *(.rela.ctors)
 *(.rela.dtors)
 *(.rela.got)
 .rela.got      0x0000000000412900      0x1c8 /usr/lib/gcc/x86_64-linux-gnu/4.9/../../../x86_64-linux-gnu/crt1.o
 *(.rela.bss .rela.bss.* .rela.gnu.linkonce.b.*)
 .rela.bss      0x0000000000412ac8        0x0 /usr/lib/gcc/x86_64-linux-gnu/4.9/../../../x86_64-linux-gnu/crt1.o
 *(.rela.ldata .rela.ldata.* .rela.gnu.linkonce.l.*)
 *(.rela.lbss .rela.lbss.* .rela.gnu.linkonce.lb.*)
 *(.rela.lrodata .rela.lrodata.* .rela.gnu.linkonce.lr.*)
 *(.rela.ifunc)

.rela.plt       0x0000000000412ac8      0xed0
 *(.rela.plt)
 .rela.plt      0x0000000000412ac8      0xed0 /usr/lib/gcc/x86_64-linux-gnu/4.9/../../../x86_64-linux-gnu/crt1.o
                [!provide]                        PROVIDE (__rela_iplt_start, .)
 *(.rela.iplt)
 .rela.iplt     0x0000000000413998        0x0 /usr/lib/gcc/x86_64-linux-gnu/4.9/../../../x86_64-linux-gnu/crt1.o
                [!provide]                        PROVIDE (__rela_iplt_end, .)

.init           0x0000000000413998       0x1a
 *(SORT(.init))
 .init          0x0000000000413998       0x15 /usr/lib/gcc/x86_64-linux-gnu/4.9/../../../x86_64-linux-gnu/crti.o
                0x0000000000413998                _init
 .init          0x00000000004139ad        0x5 /usr/lib/gcc/x86_64-linux-gnu/4.9/../../../x86_64-linux-gnu/crtn.o

.plt            0x00000000004139c0      0x9f0
 *(.plt)
 .plt           0x00000000004139c0      0x9f0 /usr/lib/gcc/x86_64-linux-gnu/4.9/../../../x86_64-linux-gnu/crt1.o
                0x00000000004139d0                rte_eth_promiscuous_disable@@DPDK_2.2
                0x00000000004139e0                __snprintf_chk@@GLIBC_2.3.4
                0x00000000004139f0                free@@GLIBC_2.2.5
                0x0000000000413a00                putchar@@GLIBC_2.2.5
                0x0000000000413a10                rte_eth_dev_vlan_filter@@DPDK_2.2
                0x0000000000413a20                rte_eth_dev_rx_queue_stop@@DPDK_2.2
                0x0000000000413a30                __errno_location@@GLIBC_2.2.5
                0x0000000000413a40                rte_eth_dev_rss_reta_query@@DPDK_2.2
                0x0000000000413a50                rte_eth_dev_set_link_up@@DPDK_2.2
                0x0000000000413a60                rte_eth_dev_attach@@DPDK_2.2
                0x0000000000413a70                rte_free@@DPDK_2.0
                0x0000000000413a80                rte_mempool_calc_obj_size@@DPDK_2.0
                0x0000000000413a90                rte_eth_bond_primary_set@@DPDK_2.0
                0x0000000000413aa0                rte_eth_dev_get_vlan_offload@@DPDK_2.2
                0x0000000000413ab0                puts@@GLIBC_2.2.5
                0x0000000000413ac0                rte_eth_dev_flow_ctrl_set@@DPDK_2.2
                0x0000000000413ad0                rte_eth_bond_mac_address_set@@DPDK_2.0
                0x0000000000413ae0                rte_eth_promiscuous_get@@DPDK_2.2
                0x0000000000413af0                rte_eth_dev_detach@@DPDK_2.2
                0x0000000000413b00                rte_mempool_lookup@@DPDK_2.0
                0x0000000000413b10                rte_eth_dev_uc_hash_table_set@@DPDK_2.2
                0x0000000000413b20                rte_delay_us@@DPDK_2.0
                0x0000000000413b30                rte_eth_xstats_reset@@DPDK_2.2
                0x0000000000413b40                fclose@@GLIBC_2.2.5
                0x0000000000413b50                rte_eth_bond_xmit_policy_get@@DPDK_2.0
                0x0000000000413b60                rte_eth_dev_socket_id@@DPDK_2.2
                0x0000000000413b70                rte_eth_stats_reset@@DPDK_2.2
                0x0000000000413b80                rte_memzone_lookup@@DPDK_2.0
                0x0000000000413b90                rte_eth_dev_mac_addr_remove@@DPDK_2.2
                0x0000000000413ba0                strlen@@GLIBC_2.2.5
                0x0000000000413bb0                rte_get_rx_ol_flag_name@@DPDK_2.0
                0x0000000000413bc0                rte_get_tx_ol_flag_name@@DPDK_2.0
                0x0000000000413bd0                __stack_chk_fail@@GLIBC_2.4
                0x0000000000413be0                rte_eal_init@@DPDK_2.0
                0x0000000000413bf0                mmap@@GLIBC_2.2.5
                0x0000000000413c00                getopt_long@@GLIBC_2.2.5
                0x0000000000413c10                rte_eth_mirror_rule_reset@@DPDK_2.2
                0x0000000000413c20                rte_eth_dev_udp_tunnel_add@@DPDK_2.2
                0x0000000000413c30                strchr@@GLIBC_2.2.5
                0x0000000000413c40                cmdline_quit@@DPDK_2.0
                0x0000000000413c50                rte_eal_has_hugepages@@DPDK_2.0
                0x0000000000413c60                rte_eth_dev_rss_hash_conf_get@@DPDK_2.2
                0x0000000000413c70                rte_eth_dev_set_vlan_strip_on_queue@@DPDK_2.2
                0x0000000000413c80                cmdline_printf@@DPDK_2.0
                0x0000000000413c90                memset@@GLIBC_2.2.5
                0x0000000000413ca0                rte_eth_dev_close@@DPDK_2.2
                0x0000000000413cb0                strnlen@@GLIBC_2.2.5
                0x0000000000413cc0                rte_eth_dev_set_mc_addr_list@@DPDK_2.2
                0x0000000000413cd0                rte_eth_dev_rx_queue_start@@DPDK_2.2
                0x0000000000413ce0                close@@GLIBC_2.2.5
                0x0000000000413cf0                rte_exit@@DPDK_2.0
                0x0000000000413d00                rte_eth_dev_rss_reta_update@@DPDK_2.2
                0x0000000000413d10                rte_ring_list_dump@@DPDK_2.0
                0x0000000000413d20                cmdline_stdin_exit@@DPDK_2.0
                0x0000000000413d30                rte_eth_dev_priority_flow_ctrl_set@@DPDK_2.2
                0x0000000000413d40                read@@GLIBC_2.2.5
                0x0000000000413d50                __libc_start_main@@GLIBC_2.2.5
                0x0000000000413d60                rte_mempool_list_dump@@DPDK_2.0
                0x0000000000413d70                fgets@@GLIBC_2.2.5
                0x0000000000413d80                rte_eth_bond_create@@DPDK_2.0
                0x0000000000413d90                __tls_get_addr@@GLIBC_2.3
                0x0000000000413da0                strtoull@@GLIBC_2.2.5
                0x0000000000413db0                rte_mempool_xmem_create@@DPDK_2.0
                0x0000000000413dc0                rte_eth_dev_set_vlan_ether_type@@DPDK_2.2
                0x0000000000413dd0                calloc@@GLIBC_2.2.5
                0x0000000000413de0                strcmp@@GLIBC_2.2.5
                0x0000000000413df0                __memcpy_chk@@GLIBC_2.3.4
                0x0000000000413e00                rte_eth_bond_slave_remove@@DPDK_2.0
                0x0000000000413e20                rte_eth_bond_primary_get@@DPDK_2.0
                0x0000000000413e30                strtol@@GLIBC_2.2.5
                0x0000000000413e40                memcpy@@GLIBC_2.14
                0x0000000000413e50                rte_mempool_xmem_size@@DPDK_2.0
                0x0000000000413e60                cmdline_interact@@DPDK_2.0
                0x0000000000413e70                rte_eth_set_queue_rate_limit@@DPDK_2.2
                0x0000000000413e80                rte_eth_dev_uc_all_hash_table_set@@DPDK_2.2
                0x0000000000413e90                rte_eth_dev_tx_queue_stop@@DPDK_2.2
                0x0000000000413ea0                rte_memzone_dump@@DPDK_2.0
                0x0000000000413eb0                rte_eth_dev_info_get@@DPDK_2.2
                0x0000000000413ec0                rte_eth_dev_filter_ctrl@@DPDK_2.2
                0x0000000000413ed0                rte_eth_dev_udp_tunnel_delete@@DPDK_2.2
                0x0000000000413ee0                __stpcpy_chk@@GLIBC_2.3.4
                0x0000000000413ef0                rte_eth_dev_filter_supported@@DPDK_2.2
                0x0000000000413f00                rte_eth_dev_set_link_down@@DPDK_2.2
                0x0000000000413f10                rte_eth_dev_set_vf_rxmode@@DPDK_2.2
                0x0000000000413f20                rte_eth_dev_set_vf_rx@@DPDK_2.2
                0x0000000000413f30                rte_eth_bond_slave_add@@DPDK_2.0
                0x0000000000413f40                random@@GLIBC_2.2.5
                0x0000000000413f50                rte_eth_bond_link_monitoring_set@@DPDK_2.0
                0x0000000000413f60                rte_eth_dev_get_dcb_info@@DPDK_2.2
                0x0000000000413f70                rte_eth_bond_slaves_get@@DPDK_2.0
                0x0000000000413f80                rte_ring_lookup@@DPDK_2.0
                0x0000000000413f90                malloc@@GLIBC_2.2.5
                0x0000000000413fa0                fflush@@GLIBC_2.2.5
                0x0000000000413fb0                rte_eth_allmulticast_enable@@DPDK_2.2
                0x0000000000413fc0                rte_eth_link_get_nowait@@DPDK_2.2
                0x0000000000413fd0                rte_eth_bond_mode_get@@DPDK_2.0
                0x0000000000413fe0                rte_eth_dev_set_vlan_offload@@DPDK_2.2
                0x0000000000413ff0                rte_eth_bond_xmit_policy_set@@DPDK_2.0
                0x0000000000414000                rte_eth_dev_rss_hash_update@@DPDK_2.2
                0x0000000000414010                rte_eth_dev_set_vf_tx@@DPDK_2.2
                0x0000000000414020                rte_eth_xstats_get@@DPDK_2.2
                0x0000000000414030                rte_eth_dev_set_vf_vlan_filter@@DPDK_2.2
                0x0000000000414040                rte_eth_dev_set_vlan_pvid@@DPDK_2.2
                0x0000000000414050                rte_eth_dev_set_tx_queue_stats_mapping@@DPDK_2.2
                0x0000000000414060                cmdline_stdin_new@@DPDK_2.0
                0x0000000000414070                rte_eth_bond_mode_set@@DPDK_2.0
                0x0000000000414080                rte_eth_dev_start@@DPDK_2.2
                0x0000000000414090                rte_mem_virt2phy@@DPDK_2.0
                0x00000000004140a0                realloc@@GLIBC_2.2.5
                0x00000000004140b0                rte_eth_rx_queue_setup@@DPDK_2.2
                0x00000000004140c0                munmap@@GLIBC_2.2.5
                0x00000000004140d0                rte_eth_stats_get@@DPDK_2.2
                0x00000000004140e0                __rte_panic@@DPDK_2.0
                0x00000000004140f0                __printf_chk@@GLIBC_2.3.4
                0x0000000000414100                rte_eth_set_vf_rate_limit@@DPDK_2.2
                0x0000000000414110                rte_eth_tx_queue_info_get@@DPDK_2.2
                0x0000000000414120                rte_eal_devargs_dump@@DPDK_2.0
                0x0000000000414130                memmove@@GLIBC_2.2.5
                0x0000000000414140                rte_eth_rx_queue_info_get@@DPDK_2.2
                0x0000000000414150                rte_mempool_dump@@DPDK_2.0
                0x0000000000414160                open@@GLIBC_2.2.5
                0x0000000000414170                rte_eth_mirror_rule_set@@DPDK_2.2
                0x0000000000414180                rte_eth_promiscuous_enable@@DPDK_2.2
                0x0000000000414190                fopen@@GLIBC_2.2.5
                0x00000000004141a0                cmdline_parse_etheraddr@@DPDK_2.0
                0x00000000004141b0                rte_eth_dev_set_mtu@@DPDK_2.2
                0x00000000004141c0                perror@@GLIBC_2.2.5
                0x00000000004141d0                rte_zmalloc@@DPDK_2.0
                0x00000000004141e0                rte_eth_dev_count@@DPDK_2.2
                0x00000000004141f0                rte_log_dump_history@@DPDK_2.0
                0x0000000000414200                rte_eth_dev_set_rx_queue_stats_mapping@@DPDK_2.2
                0x0000000000414210                strtoul@@GLIBC_2.2.5
                0x0000000000414220                pread@@GLIBC_2.2.5
                0x0000000000414230                rte_eal_get_configuration@@DPDK_2.0
                0x0000000000414240                rte_eal_remote_launch@@DPDK_2.0
                0x0000000000414250                rte_eal_mp_wait_lcore@@DPDK_2.0
                0x0000000000414260                rte_eth_tx_queue_setup@@DPDK_2.2
                0x0000000000414270                getpagesize@@GLIBC_2.2.5
                0x0000000000414280                rte_eth_dev_stop@@DPDK_2.2
                0x0000000000414290                rte_mempool_xmem_usage@@DPDK_2.0
                0x00000000004142a0                rte_eth_dev_tx_queue_start@@DPDK_2.2
                0x00000000004142b0                rte_eth_allmulticast_get@@DPDK_2.2
                0x00000000004142c0                rte_ring_dump@@DPDK_2.0
                0x00000000004142d0                rte_eth_dev_configure@@DPDK_2.2
                0x00000000004142e0                rte_eth_allmulticast_disable@@DPDK_2.2
                0x00000000004142f0                strerror@@GLIBC_2.2.5
                0x0000000000414300                rte_strsplit@@DPDK_2.0
                0x0000000000414310                rte_dump_physmem_layout@@DPDK_2.0
                0x0000000000414320                rte_log@@DPDK_2.0
                0x0000000000414330                rte_eth_bond_active_slaves_get@@DPDK_2.0
                0x0000000000414340                strstr@@GLIBC_2.2.5
                0x0000000000414350                rte_eth_dev_flow_ctrl_get@@DPDK_2.2
                0x0000000000414360                rte_eth_macaddr_get@@DPDK_2.2
                0x0000000000414370                __ctype_b_loc@@GLIBC_2.3
                0x0000000000414380                rte_pktmbuf_pool_create@@DPDK_2.1
                0x0000000000414390                __sprintf_chk@@GLIBC_2.3.4
                0x00000000004143a0                rte_eth_dev_mac_addr_add@@DPDK_2.2
 *(.iplt)
 .iplt          0x00000000004143b0        0x0 /usr/lib/gcc/x86_64-linux-gnu/4.9/../../../x86_64-linux-gnu/crt1.o

.plt.bnd
 *(.plt.bnd)

.text           0x00000000004143b0    0x25a32
 *(.text.unlikely .text.*_unlikely .text.unlikely.*)
 .text.unlikely
                0x00000000004143b0        0x0 /usr/lib/gcc/x86_64-linux-gnu/4.9/crtbegin.o
 .text.unlikely
                0x00000000004143b0        0x0 testpmd.o
 .text.unlikely
                0x00000000004143b0        0x0 parameters.o
 .text.unlikely
                0x00000000004143b0        0x0 cmdline.o
 .text.unlikely
                0x00000000004143b0        0x0 config.o
 .text.unlikely
                0x00000000004143b0        0x0 iofwd.o
 .text.unlikely
                0x00000000004143b0        0x0 macfwd.o
 .text.unlikely
                0x00000000004143b0        0x0 macfwd-retry.o
 .text.unlikely
                0x00000000004143b0        0x0 macswap.o
 .text.unlikely
                0x00000000004143b0        0x0 flowgen.o
 .text.unlikely
                0x00000000004143b0        0x0 rxonly.o
 .text.unlikely
                0x00000000004143b0        0x0 txonly.o
 .text.unlikely
                0x00000000004143b0        0x0 csumonly.o
 .text.unlikely
                0x00000000004143b0        0x0 icmpecho.o
 .text.unlikely
                0x00000000004143b0        0x0 mempool_anon.o
 .text.unlikely
                0x00000000004143b0        0x0 /usr/lib/x86_64-linux-gnu/libc_nonshared.a(elf-init.oS)
 *(.text.exit .text.exit.*)
 *(.text.startup .text.startup.*)
 .text.startup  0x00000000004143b0      0x5f9 testpmd.o
                0x00000000004143b0                main
 *(.text.hot .text.hot.*)
 *(.text .stub .text.* .gnu.linkonce.t.*)
 *fill*         0x00000000004149a9        0x7 
 .text          0x00000000004149b0       0x2a /usr/lib/gcc/x86_64-linux-gnu/4.9/../../../x86_64-linux-gnu/crt1.o
                0x00000000004149b0                _start
 .text          0x00000000004149da        0x0 /usr/lib/gcc/x86_64-linux-gnu/4.9/../../../x86_64-linux-gnu/crti.o
 *fill*         0x00000000004149da        0x6 
 .text          0x00000000004149e0       0xc6 /usr/lib/gcc/x86_64-linux-gnu/4.9/crtbegin.o
 *fill*         0x0000000000414aa6        0xa 
 .text          0x0000000000414ab0     0x3825 testpmd.o
                0x0000000000416230                find_next_port
                0x0000000000416460                set_def_fwd_config
                0x00000000004166e0                init_fwd_streams
                0x00000000004169e0                start_packet_forwarding
                0x0000000000416cb0                stop_packet_forwarding
                0x0000000000416d40                dev_set_link_up
                0x0000000000416d70                dev_set_link_down
                0x0000000000416da0                all_ports_stopped
                0x0000000000416e10                port_is_started
                0x0000000000416e50                start_port
                0x0000000000417470                stop_port
                0x0000000000417600                close_port
                0x00000000004177a0                detach_port
                0x0000000000417910                pmd_test_exit
                0x00000000004179d0                init_port_config
                0x0000000000417c30                reconfig
                0x0000000000417c80                attach_port
                0x0000000000417e30                set_port_slave_flag
                0x0000000000417e50                clear_port_slave_flag
                0x0000000000417e70                init_port_dcb_config
 *fill*         0x00000000004182d5        0xb 
 .text          0x00000000004182e0     0x2103 parameters.o
                0x0000000000418870                launch_args_parse
 *fill*         0x000000000041a3e3        0xd 
 .text          0x000000000041a3f0     0x87d2 cmdline.o
                0x0000000000422580                parse_item_list
                0x0000000000422b10                prompt
 *fill*         0x0000000000422bc2        0xe 
 .text          0x0000000000422bd0     0x5d5f config.o
                0x0000000000422eb0                nic_xstats_display
                0x0000000000422fa0                nic_xstats_clear
                0x0000000000422fb0                rx_queue_infos_display
                0x00000000004231a0                tx_queue_infos_display
                0x0000000000423360                port_id_is_invalid
                0x00000000004233d0                nic_stats_display
                0x00000000004236c0                nic_stats_clear
                0x0000000000423780                nic_stats_mapping_display
                0x0000000000423980                port_infos_display
                0x0000000000424080                port_reg_bit_display
                0x00000000004241a0                port_reg_bit_field_display
                0x0000000000424350                port_reg_display
                0x0000000000424420                port_reg_bit_set
                0x0000000000424570                port_reg_bit_field_set
                0x0000000000424740                port_reg_set
                0x0000000000424830                port_mtu_set
                0x0000000000424880                rx_queue_id_is_invalid
                0x00000000004248c0                tx_queue_id_is_invalid
                0x0000000000424900                rx_ring_desc_display
                0x0000000000424b30                tx_ring_desc_display
                0x0000000000424ca0                fwd_lcores_config_display
                0x0000000000424d00                rxtx_config_display
                0x0000000000424e90                port_rss_reta_info
                0x0000000000424f50                port_rss_hash_conf_show
                0x0000000000425560                port_rss_hash_key_update
                0x00000000004257f0                fwd_config_setup
                0x0000000000426260                fwd_config_display
                0x0000000000426530                set_fwd_lcores_list
                0x0000000000426650                set_fwd_lcores_mask
                0x00000000004266e0                set_fwd_lcores_number
                0x0000000000426730                set_fwd_ports_list
                0x00000000004267f0                set_fwd_ports_mask
                0x0000000000426880                set_fwd_ports_number
                0x00000000004268d0                set_nb_pkt_per_burst
                0x0000000000426920                set_tx_pkt_split
                0x00000000004269b0                show_tx_pkt_segments
                0x0000000000426ab0                set_tx_pkt_segments
                0x0000000000426d80                list_pkt_forwarding_modes
                0x0000000000426e80                set_pkt_forwarding_mode
                0x0000000000426f10                set_verbose_level
                0x0000000000426f50                vlan_extend_set
                0x0000000000426fb0                rx_vlan_strip_set
                0x0000000000427010                rx_vlan_strip_set_on_queue
                0x0000000000427070                rx_vlan_filter_set
                0x00000000004270d0                rx_vft_set
                0x0000000000427190                rx_vlan_all_filter_set
                0x00000000004271d0                vlan_tpid_set
                0x0000000000427220                tx_vlan_reset
                0x0000000000427270                tx_vlan_set
                0x00000000004272f0                tx_qinq_set
                0x00000000004273c0                tx_vlan_pvid_set
                0x0000000000427400                set_qmap
                0x0000000000427580                fdir_get_infos
                0x0000000000427e40                fdir_set_flex_mask
                0x0000000000427ed0                fdir_set_flex_payload
                0x0000000000428020                set_vf_traffic
                0x00000000004280c0                set_vf_rx_vlan
                0x0000000000428160                set_queue_rate_limit
                0x0000000000428220                set_vf_rate_limit
                0x0000000000428300                mcast_addr_add
                0x00000000004284b0                mcast_addr_remove
                0x0000000000428670                port_dcb_info_display
 *fill*         0x000000000042892f        0x1 
 .text          0x0000000000428930      0x9de iofwd.o
 *fill*         0x000000000042930e        0x2 
 .text          0x0000000000429310      0xaca macfwd.o
 *fill*         0x0000000000429dda        0x6 
 .text          0x0000000000429de0      0xb95 macfwd-retry.o
 *fill*         0x000000000042a975        0xb 
 .text          0x000000000042a980      0xaaa macswap.o
 *fill*         0x000000000042b42a        0x6 
 .text          0x000000000042b430      0xfde flowgen.o
 *fill*         0x000000000042c40e        0x2 
 .text          0x000000000042c410     0x133a rxonly.o
 *fill*         0x000000000042d74a        0x6 
 .text          0x000000000042d750     0x612f txonly.o
 *fill*         0x000000000043387f        0x1 
 .text          0x0000000000433880     0x4d83 csumonly.o
 *fill*         0x0000000000438603        0xd 
 .text          0x0000000000438610     0x1358 icmpecho.o
 *fill*         0x0000000000439968        0x8 
 .text          0x0000000000439970      0x3fc mempool_anon.o
                0x0000000000439970                mempool_anon_create
 *fill*         0x0000000000439d6c        0x4 
 .text          0x0000000000439d70       0x72 /usr/lib/x86_64-linux-gnu/libc_nonshared.a(elf-init.oS)
                0x0000000000439d70                __libc_csu_init
                0x0000000000439de0                __libc_csu_fini
 .text          0x0000000000439de2        0x0 /usr/lib/gcc/x86_64-linux-gnu/4.9/crtend.o
 .text          0x0000000000439de2        0x0 /usr/lib/gcc/x86_64-linux-gnu/4.9/../../../x86_64-linux-gnu/crtn.o
 *(.gnu.warning)

.fini           0x0000000000439de4        0x9
 *(SORT(.fini))
 .fini          0x0000000000439de4        0x4 /usr/lib/gcc/x86_64-linux-gnu/4.9/../../../x86_64-linux-gnu/crti.o
                0x0000000000439de4                _fini
 .fini          0x0000000000439de8        0x5 /usr/lib/gcc/x86_64-linux-gnu/4.9/../../../x86_64-linux-gnu/crtn.o
                [!provide]                        PROVIDE (__etext, .)
                [!provide]                        PROVIDE (_etext, .)
                [!provide]                        PROVIDE (etext, .)

.rodata         0x0000000000439e00     0xee64
 *(.rodata .rodata.* .gnu.linkonce.r.*)
 .rodata.cst4   0x0000000000439e00        0x4 /usr/lib/gcc/x86_64-linux-gnu/4.9/../../../x86_64-linux-gnu/crt1.o
                0x0000000000439e00                _IO_stdin_used
 *fill*         0x0000000000439e04        0x4 
 .rodata.str1.8
                0x0000000000439e08      0xbe3 testpmd.o
 .rodata.str1.1
                0x000000000043a9eb      0x353 testpmd.o
                                        0x35b (size before relaxing)
 *fill*         0x000000000043ad3e        0x2 
 .rodata        0x000000000043ad40       0x80 testpmd.o
                0x000000000043ad80                vlan_tags
 .rodata.cst16  0x000000000043adc0       0x20 testpmd.o
 .rodata.str1.1
                0x000000000043ade0      0x4d7 parameters.o
                                        0x50b (size before relaxing)
 *fill*         0x000000000043b2b7        0x1 
 .rodata.str1.8
                0x000000000043b2b8     0x1779 parameters.o
 *fill*         0x000000000043ca31        0x7 
 .rodata.str1.8
                0x000000000043ca38     0x7a1b cmdline.o
 .rodata.str1.1
                0x0000000000444453      0xe5e cmdline.o
                                       0x1088 (size before relaxing)
 *fill*         0x00000000004452b1        0xf 
 .rodata        0x00000000004452c0      0x6c0 cmdline.o
 .rodata.str1.8
                0x0000000000445980     0x1863 config.o
 .rodata.str1.1
                0x00000000004471e3      0x810 config.o
                                        0x89a (size before relaxing)
 *fill*         0x00000000004479f3        0xd 
 .rodata        0x0000000000447a00      0x2c0 config.o
 .rodata.cst16  0x0000000000447cc0       0x20 config.o
 .rodata.str1.1
                0x0000000000447ce0        0x3 iofwd.o
 .rodata.str1.1
                0x0000000000447ce3        0x4 macfwd.o
 .rodata.str1.1
                0x0000000000447ce3        0xa macfwd-retry.o
 .rodata.str1.1
                0x0000000000447ce3        0x8 macswap.o
 .rodata.str1.1
                0x0000000000447ceb        0x8 flowgen.o
                                          0xe (size before relaxing)
 *fill*         0x0000000000447cf3        0x5 
 .rodata.str1.8
                0x0000000000447cf8       0x3f flowgen.o
 .rodata        0x0000000000447d37       0x16 flowgen.o
 *fill*         0x0000000000447d4d        0x3 
 .rodata.str1.8
                0x0000000000447d50      0x1cd rxonly.o
 .rodata.str1.1
                0x0000000000447f1d      0x437 rxonly.o
                                        0x467 (size before relaxing)
 .rodata        0x0000000000448354       0xca txonly.o
 .rodata.str1.1
                0x000000000044841e        0x7 txonly.o
                                          0xd (size before relaxing)
 *fill*         0x0000000000448425        0x3 
 .rodata.str1.8
                0x0000000000448428       0x3e txonly.o
                                         0x7e (size before relaxing)
 .rodata.str1.1
                0x0000000000448466       0x20 csumonly.o
                                         0x41 (size before relaxing)
 *fill*         0x0000000000448486        0x2 
 .rodata.str1.8
                0x0000000000448488      0x1f5 csumonly.o
                                        0x235 (size before relaxing)
 *fill*         0x000000000044867d        0x3 
 .rodata        0x0000000000448680       0xaa csumonly.o
 *fill*         0x000000000044872a        0x6 
 .rodata.cst16  0x0000000000448730       0x20 csumonly.o
                                         0x40 (size before relaxing)
 .rodata.str1.1
                0x0000000000448750      0x2e3 icmpecho.o
                                        0x353 (size before relaxing)
 *fill*         0x0000000000448a33        0x5 
 .rodata.str1.8
                0x0000000000448a38       0x78 icmpecho.o
 .rodata        0x0000000000448ab0       0x28 icmpecho.o
 .rodata.str1.8
                0x0000000000448ad8      0x160 mempool_anon.o
                                        0x159 (size before relaxing)
 .rodata.str1.1
                0x0000000000448c38       0x13 mempool_anon.o
                                         0x19 (size before relaxing)
 *fill*         0x0000000000448c4b        0x5 
 .rodata        0x0000000000448c50       0x14 mempool_anon.o

.rodata1
 *(.rodata1)

.eh_frame_hdr   0x0000000000448c64      0x73c
 *(.eh_frame_hdr)
 .eh_frame_hdr  0x0000000000448c64      0x73c /usr/lib/gcc/x86_64-linux-gnu/4.9/../../../x86_64-linux-gnu/crt1.o

.eh_frame       0x00000000004493a0     0x348c
 *(.eh_frame)
 .eh_frame      0x00000000004493a0       0x30 /usr/lib/gcc/x86_64-linux-gnu/4.9/../../../x86_64-linux-gnu/crt1.o
 .eh_frame      0x00000000004493d0       0x40 /usr/lib/gcc/x86_64-linux-gnu/4.9/../../../x86_64-linux-gnu/crt1.o
 .eh_frame      0x0000000000449410      0x7f8 testpmd.o
                                        0x7d8 (size before relaxing)
 .eh_frame      0x0000000000449c08       0xf0 parameters.o
                                        0x108 (size before relaxing)
 .eh_frame      0x0000000000449cf8     0x12c8 cmdline.o
                                       0x11b8 (size before relaxing)
 .eh_frame      0x000000000044afc0     0x1108 config.o
                                       0x1098 (size before relaxing)
 .eh_frame      0x000000000044c0c8       0x50 iofwd.o
                                         0x68 (size before relaxing)
 .eh_frame      0x000000000044c118       0x50 macfwd.o
                                         0x68 (size before relaxing)
 .eh_frame      0x000000000044c168       0x50 macfwd-retry.o
                                         0x68 (size before relaxing)
 .eh_frame      0x000000000044c1b8       0x50 macswap.o
                                         0x68 (size before relaxing)
 .eh_frame      0x000000000044c208       0xa0 flowgen.o
                                         0xb8 (size before relaxing)
 .eh_frame      0x000000000044c2a8       0xd8 rxonly.o
                                         0xf0 (size before relaxing)
 .eh_frame      0x000000000044c380      0x140 txonly.o
                                        0x150 (size before relaxing)
 .eh_frame      0x000000000044c4c0       0xf8 csumonly.o
                                        0x108 (size before relaxing)
 .eh_frame      0x000000000044c5b8      0x150 icmpecho.o
                                        0x160 (size before relaxing)
 .eh_frame      0x000000000044c708       0xc0 mempool_anon.o
                                         0xd8 (size before relaxing)
 .eh_frame      0x000000000044c7c8       0x60 /usr/lib/x86_64-linux-gnu/libc_nonshared.a(elf-init.oS)
                                         0x78 (size before relaxing)
 .eh_frame      0x000000000044c828        0x4 /usr/lib/gcc/x86_64-linux-gnu/4.9/crtend.o

.gcc_except_table
 *(.gcc_except_table .gcc_except_table.*)

.exception_ranges
 *(.exception_ranges .exception_ranges*)
                0x000000000044c82c                . = (ALIGN (0x200000) - ((0x200000 - .) & 0x1fffff))
                0x000000000064c94c                . = DATA_SEGMENT_ALIGN (0x200000, 0x1000)

.eh_frame
 *(.eh_frame)

.gcc_except_table
 *(.gcc_except_table .gcc_except_table.*)

.exception_ranges
 *(.exception_ranges .exception_ranges*)

.tdata
 *(.tdata .tdata.* .gnu.linkonce.td.*)

.tbss
 *(.tbss .tbss.* .gnu.linkonce.tb.*)
 *(.tcommon)

.preinit_array  0x000000000064c94c        0x0
                [!provide]                        PROVIDE (__preinit_array_start, .)
 *(.preinit_array)
                [!provide]                        PROVIDE (__preinit_array_end, .)

.init_array     0x000000000064c950        0x8
                0x000000000064c950                PROVIDE (__init_array_start, .)
 *(SORT(.init_array.*) SORT(.ctors.*))
 *(.init_array EXCLUDE_FILE(*crtend?.o *crtend.o *crtbegin?.o *crtbegin.o) .ctors)
 .init_array    0x000000000064c950        0x8 /usr/lib/gcc/x86_64-linux-gnu/4.9/crtbegin.o
                0x000000000064c958                PROVIDE (__init_array_end, .)

.fini_array     0x000000000064c958        0x8
                [!provide]                        PROVIDE (__fini_array_start, .)
 *(SORT(.fini_array.*) SORT(.dtors.*))
 *(.fini_array EXCLUDE_FILE(*crtend?.o *crtend.o *crtbegin?.o *crtbegin.o) .dtors)
 .fini_array    0x000000000064c958        0x8 /usr/lib/gcc/x86_64-linux-gnu/4.9/crtbegin.o
                [!provide]                        PROVIDE (__fini_array_end, .)

.ctors
 *crtbegin.o(.ctors)
 *crtbegin?.o(.ctors)
 *(EXCLUDE_FILE(*crtend?.o *crtend.o) .ctors)
 *(SORT(.ctors.*))
 *(.ctors)

.dtors
 *crtbegin.o(.dtors)
 *crtbegin?.o(.dtors)
 *(EXCLUDE_FILE(*crtend?.o *crtend.o) .dtors)
 *(SORT(.dtors.*))
 *(.dtors)

.jcr            0x000000000064c960        0x8
 *(.jcr)
 .jcr           0x000000000064c960        0x0 /usr/lib/gcc/x86_64-linux-gnu/4.9/crtbegin.o
 .jcr           0x000000000064c960        0x8 /usr/lib/gcc/x86_64-linux-gnu/4.9/crtend.o

.data.rel.ro    0x000000000064c980      0x388
 *(.data.rel.ro.local* .gnu.linkonce.d.rel.ro.local.*)
 .data.rel.ro.local
                0x000000000064c980       0x30 config.o
 *fill*         0x000000000064c9b0       0x10 
 .data.rel.ro.local
                0x000000000064c9c0      0x348 icmpecho.o
 *(.data.rel.ro .data.rel.ro.* .gnu.linkonce.d.rel.ro.*)

.dynamic        0x000000000064cd08      0x240
 *(.dynamic)
 .dynamic       0x000000000064cd08      0x240 /usr/lib/gcc/x86_64-linux-gnu/4.9/../../../x86_64-linux-gnu/crt1.o
                0x000000000064cd08                _DYNAMIC

.got            0x000000000064cf48       0x98
 *(.got)
 .got           0x000000000064cf48       0x98 /usr/lib/gcc/x86_64-linux-gnu/4.9/../../../x86_64-linux-gnu/crt1.o
 *(.igot)
                0x000000000064cfe8                . = DATA_SEGMENT_RELRO_END (., (SIZEOF (.got.plt) >= 0x18)?0x18:0x0)

.got.plt        0x000000000064d000      0x508
 *(.got.plt)
 .got.plt       0x000000000064d000      0x508 /usr/lib/gcc/x86_64-linux-gnu/4.9/../../../x86_64-linux-gnu/crt1.o
                0x000000000064d000                _GLOBAL_OFFSET_TABLE_
 *(.igot.plt)
 .igot.plt      0x000000000064d508        0x0 /usr/lib/gcc/x86_64-linux-gnu/4.9/../../../x86_64-linux-gnu/crt1.o

.data           0x000000000064d540     0x8e20
 *(.data .data.* .gnu.linkonce.d.*)
 .data          0x000000000064d540        0x4 /usr/lib/gcc/x86_64-linux-gnu/4.9/../../../x86_64-linux-gnu/crt1.o
                0x000000000064d540                data_start
                0x000000000064d540                __data_start
 .data          0x000000000064d544        0x0 /usr/lib/gcc/x86_64-linux-gnu/4.9/../../../x86_64-linux-gnu/crti.o
 *fill*         0x000000000064d544        0x4 
 .data          0x000000000064d548        0x8 /usr/lib/gcc/x86_64-linux-gnu/4.9/crtbegin.o
                0x000000000064d548                __dso_handle
 *fill*         0x000000000064d550       0x30 
 .data          0x000000000064d580      0x543 testpmd.o
                0x000000000064d580                test_done
                0x000000000064d5c0                fdir_conf
                0x000000000064d874                rx_mode
                0x000000000064d880                rss_hf
                0x000000000064d888                txq_flags
                0x000000000064d88c                tx_rs_thresh
                0x000000000064d88e                tx_free_thresh
                0x000000000064d890                rx_drop_en
                0x000000000064d892                rx_free_thresh
                0x000000000064d894                tx_wthresh
                0x000000000064d895                tx_hthresh
                0x000000000064d896                tx_pthresh
                0x000000000064d897                rx_wthresh
                0x000000000064d898                rx_hthresh
                0x000000000064d899                rx_pthresh
                0x000000000064d89a                nb_txd
                0x000000000064d89c                nb_rxd
                0x000000000064d89e                nb_txq
                0x000000000064d8a0                nb_rxq
                0x000000000064d8a2                mb_mempool_cache
                0x000000000064d8a4                nb_pkt_per_burst
                0x000000000064d8a6                tx_pkt_nb_segs
                0x000000000064d8c0                tx_pkt_seg_lengths
                0x000000000064dabe                tx_pkt_length
                0x000000000064dac0                mbuf_data_size
                0x000000000064dac2                socket_num
 *fill*         0x000000000064dac3       0x3d 
 .data.rel      0x000000000064db00       0x90 testpmd.o
                0x000000000064db00                rx_queue_stats_mappings
                0x000000000064db08                tx_queue_stats_mappings
                0x000000000064db10                cur_fwd_eng
                0x000000000064db40                fwd_engines
 .data          0x000000000064db90        0x0 parameters.o
 *fill*         0x000000000064db90       0x30 
 .data.rel.local
                0x000000000064dbc0      0x700 parameters.o
 .data          0x000000000064e2c0       0xea cmdline.o
 *fill*         0x000000000064e3aa       0x16 
 .data.rel      0x000000000064e3c0     0x7c58 cmdline.o
                0x000000000064e3c0                main_ctx
                0x000000000064e7d0                cmd_mcast_addr
                0x000000000064e810                cmd_mcast_addr_addr
                0x000000000064e820                cmd_mcast_addr_portnum
                0x000000000064e840                cmd_mcast_addr_what
                0x000000000064e860                cmd_mcast_addr_cmd
                0x000000000064e880                cmd_set_fdir_input_set
                0x000000000064e8d0                cmd_set_fdir_input_set_select
                0x000000000064e8f0                cmd_set_fdir_input_set_field
                0x000000000064e910                cmd_set_fdir_input_set_flow_type
                0x000000000064e930                cmd_set_fdir_input_set_port_id
                0x000000000064e950                cmd_set_fdir_input_set_cmd
                0x000000000064e970                cmd_set_hash_input_set
                0x000000000064e9c0                cmd_set_hash_input_set_select
                0x000000000064e9e0                cmd_set_hash_input_set_field
                0x000000000064ea00                cmd_set_hash_input_set_flow_type
                0x000000000064ea20                cmd_set_hash_input_set_port_id
                0x000000000064ea40                cmd_set_hash_input_set_cmd
                0x000000000064ea60                cmd_set_hash_global_config
                0x000000000064eab0                cmd_set_hash_global_config_enable
                0x000000000064ead0                cmd_set_hash_global_config_flow_type
                0x000000000064eaf0                cmd_set_hash_global_config_hash_func
                0x000000000064eb10                cmd_set_hash_global_config_port_id
                0x000000000064eb30                cmd_set_hash_global_config_all
                0x000000000064eb50                cmd_get_hash_global_config
                0x000000000064eb80                cmd_get_hash_global_config_port_id
                0x000000000064eba0                cmd_get_hash_global_config_all
                0x000000000064ebc0                cmd_set_sym_hash_ena_per_port
                0x000000000064ec00                cmd_set_sym_hash_ena_per_port_enable
                0x000000000064ec20                cmd_set_sym_hash_ena_per_port_port_id
                0x000000000064ec40                cmd_set_sym_hash_ena_per_port_all
                0x000000000064ec60                cmd_get_sym_hash_ena_per_port
                0x000000000064ec90                cmd_get_sym_hash_ena_per_port_port_id
                0x000000000064ecb0                cmd_get_sym_hash_ena_per_port_all
                0x000000000064ecd0                cmd_set_flow_director_flex_payload
                0x000000000064ed10                cmd_flow_director_flexpayload_payload_cfg
                0x000000000064ed30                cmd_flow_director_flexpayload_payload_layer
                0x000000000064ed50                cmd_flow_director_flexpayload_port_id
                0x000000000064ed70                cmd_flow_director_flexpayload
                0x000000000064ed90                cmd_set_flow_director_flex_mask
                0x000000000064ede0                cmd_flow_director_flexmask_mask
                0x000000000064ee00                cmd_flow_director_flexmask_flow_type
                0x000000000064ee20                cmd_flow_director_flexmask_flow
                0x000000000064ee40                cmd_flow_director_flexmask_port_id
                0x000000000064ee60                cmd_flow_director_flexmask
                0x000000000064ee80                cmd_set_flow_director_tunnel_mask
                0x000000000064ef00                cmd_set_flow_director_mac_vlan_mask
                0x000000000064ef60                cmd_set_flow_director_ip_mask
                0x000000000064eff0                cmd_flow_director_mask_tunnel_id_value
                0x000000000064f010                cmd_flow_director_mask_tunnel_id
                0x000000000064f030                cmd_flow_director_mask_tunnel_type_value
                0x000000000064f050                cmd_flow_director_mask_tunnel_type
                0x000000000064f070                cmd_flow_director_mask_mac_value
                0x000000000064f090                cmd_flow_director_mask_mac
                0x000000000064f0b0                cmd_flow_director_mask_mode_tunnel
                0x000000000064f0d0                cmd_flow_director_mask_mode_mac_vlan
                0x000000000064f0f0                cmd_flow_director_mask_mode_ip
                0x000000000064f110                cmd_flow_director_mask_mode
                0x000000000064f130                cmd_flow_director_mask_port_dst
                0x000000000064f150                cmd_flow_director_mask_ipv6_dst
                0x000000000064f170                cmd_flow_director_mask_ipv4_dst
                0x000000000064f190                cmd_flow_director_mask_dst
                0x000000000064f1b0                cmd_flow_director_mask_port_src
                0x000000000064f1d0                cmd_flow_director_mask_ipv6_src
                0x000000000064f1f0                cmd_flow_director_mask_ipv4_src
                0x000000000064f210                cmd_flow_director_mask_src
                0x000000000064f230                cmd_flow_director_mask_vlan_value
                0x000000000064f250                cmd_flow_director_mask_vlan
                0x000000000064f270                cmd_flow_director_mask_port_id
                0x000000000064f290                cmd_flow_director_mask
                0x000000000064f2b0                cmd_flush_flow_director
                0x000000000064f2e0                cmd_flush_flow_director_port_id
                0x000000000064f300                cmd_flush_flow_director_flush
                0x000000000064f320                cmd_add_del_tunnel_flow_director
                0x000000000064f3e0                cmd_add_del_mac_vlan_flow_director
                0x000000000064f480                cmd_add_del_l2_flow_director
                0x000000000064f530                cmd_add_del_sctp_flow_director
                0x000000000064f620                cmd_add_del_udp_flow_director
                0x000000000064f700                cmd_add_del_ip_flow_director
                0x000000000064f7d0                cmd_flow_director_tunnel_id_value
                0x000000000064f7f0                cmd_flow_director_tunnel_id
                0x000000000064f810                cmd_flow_director_tunnel_type
                0x000000000064f830                cmd_flow_director_tunnel
                0x000000000064f850                cmd_flow_director_mac_addr
                0x000000000064f860                cmd_flow_director_mac
                0x000000000064f880                cmd_flow_director_mode_tunnel
                0x000000000064f8a0                cmd_flow_director_mode_mac_vlan
                0x000000000064f8c0                cmd_flow_director_mode_ip
                0x000000000064f8e0                cmd_flow_director_mode
                0x000000000064f900                cmd_flow_director_fd_id_value
                0x000000000064f920                cmd_flow_director_fd_id
                0x000000000064f940                cmd_flow_director_queue_id
                0x000000000064f960                cmd_flow_director_queue
                0x000000000064f980                cmd_flow_director_pf_vf
                0x000000000064f9a0                cmd_flow_director_drop
                0x000000000064f9c0                cmd_flow_director_flexbytes_value
                0x000000000064f9e0                cmd_flow_director_flexbytes
                0x000000000064fa00                cmd_flow_director_vlan_value
                0x000000000064fa20                cmd_flow_director_vlan
                0x000000000064fa40                cmd_flow_director_verify_tag_value
                0x000000000064fa60                cmd_flow_director_verify_tag
                0x000000000064fa80                cmd_flow_director_port_dst
                0x000000000064faa0                cmd_flow_director_ip_dst
                0x000000000064fac0                cmd_flow_director_dst
                0x000000000064fae0                cmd_flow_director_port_src
                0x000000000064fb00                cmd_flow_director_ip_src
                0x000000000064fb20                cmd_flow_director_src
                0x000000000064fb40                cmd_flow_director_ether_type
                0x000000000064fb60                cmd_flow_director_ether
                0x000000000064fb80                cmd_flow_director_flow_type
                0x000000000064fba0                cmd_flow_director_flow
                0x000000000064fbc0                cmd_flow_director_ops
                0x000000000064fbe0                cmd_flow_director_port_id
                0x000000000064fc00                cmd_flow_director_filter
                0x000000000064fc20                cmd_ethertype_filter
                0x000000000064fc90                cmd_ethertype_filter_queue_id
                0x000000000064fcb0                cmd_ethertype_filter_queue
                0x000000000064fcd0                cmd_ethertype_filter_drop
                0x000000000064fcf0                cmd_ethertype_filter_ethertype_value
                0x000000000064fd10                cmd_ethertype_filter_ethertype
                0x000000000064fd30                cmd_ethertype_filter_mac_addr
                0x000000000064fd40                cmd_ethertype_filter_mac
                0x000000000064fd60                cmd_ethertype_filter_ops
                0x000000000064fd80                cmd_ethertype_filter_port_id
                0x000000000064fda0                cmd_ethertype_filter_filter
                0x000000000064fdc0                cmd_flex_filter
                0x000000000064fe50                cmd_flex_filter_queue_id
                0x000000000064fe70                cmd_flex_filter_queue
                0x000000000064fe90                cmd_flex_filter_priority_value
                0x000000000064feb0                cmd_flex_filter_priority
                0x000000000064fed0                cmd_flex_filter_mask_value
                0x000000000064fef0                cmd_flex_filter_mask
                0x000000000064ff10                cmd_flex_filter_bytes_value
                0x000000000064ff30                cmd_flex_filter_bytes
                0x000000000064ff50                cmd_flex_filter_len_value
                0x000000000064ff70                cmd_flex_filter_len
                0x000000000064ff90                cmd_flex_filter_ops
                0x000000000064ffb0                cmd_flex_filter_port_id
                0x000000000064ffd0                cmd_flex_filter_filter
                0x000000000064fff0                cmd_5tuple_filter
                0x00000000006500c0                cmd_5tuple_filter_queue_id
                0x00000000006500e0                cmd_5tuple_filter_queue
                0x0000000000650100                cmd_5tuple_filter_priority_value
                0x0000000000650120                cmd_5tuple_filter_priority
                0x0000000000650140                cmd_5tuple_filter_tcp_flags_value
                0x0000000000650160                cmd_5tuple_filter_tcp_flags
                0x0000000000650180                cmd_5tuple_filter_mask_value
                0x00000000006501a0                cmd_5tuple_filter_mask
                0x00000000006501c0                cmd_5tuple_filter_protocol_value
                0x00000000006501e0                cmd_5tuple_filter_protocol
                0x0000000000650200                cmd_5tuple_filter_src_port_value
                0x0000000000650220                cmd_5tuple_filter_src_port
                0x0000000000650240                cmd_5tuple_filter_dst_port_value
                0x0000000000650260                cmd_5tuple_filter_dst_port
                0x0000000000650280                cmd_5tuple_filter_src_ip_value
                0x00000000006502a0                cmd_5tuple_filter_src_ip
                0x00000000006502c0                cmd_5tuple_filter_dst_ip_value
                0x00000000006502e0                cmd_5tuple_filter_dst_ip
                0x0000000000650300                cmd_5tuple_filter_ops
                0x0000000000650320                cmd_5tuple_filter_port_id
                0x0000000000650340                cmd_5tuple_filter_filter
                0x0000000000650360                cmd_2tuple_filter
                0x0000000000650400                cmd_2tuple_filter_queue_id
                0x0000000000650420                cmd_2tuple_filter_queue
                0x0000000000650440                cmd_2tuple_filter_priority_value
                0x0000000000650460                cmd_2tuple_filter_priority
                0x0000000000650480                cmd_2tuple_filter_tcp_flags_value
                0x00000000006504a0                cmd_2tuple_filter_tcp_flags
                0x00000000006504c0                cmd_2tuple_filter_mask_value
                0x00000000006504e0                cmd_2tuple_filter_mask
                0x0000000000650500                cmd_2tuple_filter_protocol_value
                0x0000000000650520                cmd_2tuple_filter_protocol
                0x0000000000650540                cmd_2tuple_filter_dst_port_value
                0x0000000000650560                cmd_2tuple_filter_dst_port
                0x0000000000650580                cmd_2tuple_filter_ops
                0x00000000006505a0                cmd_2tuple_filter_port_id
                0x00000000006505c0                cmd_2tuple_filter_filter
                0x00000000006505e0                cmd_syn_filter
                0x0000000000650640                cmd_syn_filter_queue_id
                0x0000000000650660                cmd_syn_filter_queue
                0x0000000000650680                cmd_syn_filter_high
                0x00000000006506a0                cmd_syn_filter_priority
                0x00000000006506c0                cmd_syn_filter_ops
                0x00000000006506e0                cmd_syn_filter_port_id
                0x0000000000650700                cmd_syn_filter_filter
                0x0000000000650720                cmd_dump_one
                0x0000000000650750                cmd_dump_one_name
                0x0000000000650770                cmd_dump_one_dump
                0x0000000000650790                cmd_dump
                0x00000000006507c0                cmd_dump_dump
                0x00000000006507e0                cmd_reset_mirror_rule
                0x0000000000650830                cmd_rm_mirror_rule_ruleid
                0x0000000000650850                cmd_rm_mirror_rule_mirror
                0x0000000000650870                cmd_rm_mirror_rule_portid
                0x0000000000650890                cmd_rm_mirror_rule_port
                0x00000000006508b0                cmd_rm_mirror_rule_reset
                0x00000000006508d0                cmd_set_mirror_link
                0x0000000000650940                cmd_mirror_link_on
                0x0000000000650960                cmd_mirror_link_poolid
                0x0000000000650980                cmd_mirror_link_dstpool
                0x00000000006509a0                cmd_mirror_link_what
                0x00000000006509c0                cmd_mirror_link_ruleid
                0x00000000006509e0                cmd_mirror_link_mirror
                0x0000000000650a00                cmd_mirror_link_portid
                0x0000000000650a20                cmd_mirror_link_port
                0x0000000000650a40                cmd_mirror_link_set
                0x0000000000650a60                cmd_set_mirror_mask
                0x0000000000650ad0                cmd_mirror_mask_on
                0x0000000000650af0                cmd_mirror_mask_poolid
                0x0000000000650b10                cmd_mirror_mask_dstpool
                0x0000000000650b30                cmd_mirror_mask_value
                0x0000000000650b50                cmd_mirror_mask_what
                0x0000000000650b70                cmd_mirror_mask_ruleid
                0x0000000000650b90                cmd_mirror_mask_mirror
                0x0000000000650bb0                cmd_mirror_mask_portid
                0x0000000000650bd0                cmd_mirror_mask_port
                0x0000000000650bf0                cmd_mirror_mask_set
                0x0000000000650c10                cmd_global_config
                0x0000000000650c50                cmd_global_config_gre_key_len
                0x0000000000650c70                cmd_global_config_type
                0x0000000000650c90                cmd_global_config_port_id
                0x0000000000650cb0                cmd_global_config_cmd
                0x0000000000650cd0                cmd_tunnel_udp_config
                0x0000000000650d10                cmd_tunnel_udp_config_port_id
                0x0000000000650d30                cmd_tunnel_udp_config_udp_port
                0x0000000000650d50                cmd_tunnel_udp_config_what
                0x0000000000650d70                cmd_tunnel_udp_config_cmd
                0x0000000000650d90                cmd_tunnel_filter
                0x0000000000650e10                cmd_tunnel_filter_queue_num
                0x0000000000650e30                cmd_tunnel_filter_tenant_id
                0x0000000000650e50                cmd_tunnel_filter_filter_type
                0x0000000000650e70                cmd_tunnel_filter_tunnel_type
                0x0000000000650e90                cmd_tunnel_filter_ip_value
                0x0000000000650eb0                cmd_tunnel_filter_innner_vlan
                0x0000000000650ed0                cmd_tunnel_filter_inner_mac
                0x0000000000650ee0                cmd_tunnel_filter_outer_mac
                0x0000000000650ef0                cmd_tunnel_filter_port_id
                0x0000000000650f10                cmd_tunnel_filter_what
                0x0000000000650f30                cmd_tunnel_filter_cmd
                0x0000000000650f50                cmd_vf_rate_limit
                0x0000000000650fc0                cmd_vf_rate_limit_q_msk_val
                0x0000000000650fe0                cmd_vf_rate_limit_q_msk
                0x0000000000651000                cmd_vf_rate_limit_ratenum
                0x0000000000651020                cmd_vf_rate_limit_rate
                0x0000000000651040                cmd_vf_rate_limit_vfnum
                0x0000000000651060                cmd_vf_rate_limit_vf
                0x0000000000651080                cmd_vf_rate_limit_portnum
                0x00000000006510a0                cmd_vf_rate_limit_port
                0x00000000006510c0                cmd_vf_rate_limit_set
                0x00000000006510e0                cmd_queue_rate_limit
                0x0000000000651140                cmd_queue_rate_limit_ratenum
                0x0000000000651160                cmd_queue_rate_limit_rate
                0x0000000000651180                cmd_queue_rate_limit_queuenum
                0x00000000006511a0                cmd_queue_rate_limit_queue
                0x00000000006511c0                cmd_queue_rate_limit_portnum
                0x00000000006511e0                cmd_queue_rate_limit_port
                0x0000000000651200                cmd_queue_rate_limit_set
                0x0000000000651220                cmd_vf_rxvlan_filter
                0x0000000000651280                cmd_vf_rx_vlan_filter_vf_mask
                0x00000000006512a0                cmd_vf_rx_vlan_filter_vf
                0x00000000006512c0                cmd_vf_rx_vlan_filter_portid
                0x00000000006512e0                cmd_vf_rx_vlan_filter_port
                0x0000000000651300                cmd_vf_rx_vlan_filter_vlanid
                0x0000000000651320                cmd_vf_rx_vlan_filter_what
                0x0000000000651340                cmd_vf_rx_vlan_filter_rx_vlan
                0x0000000000651360                cmd_vf_mac_addr_filter
                0x00000000006513c0                cmd_vf_mac_addr_addr
                0x00000000006513d0                cmd_vf_mac_addr_vfnum
                0x00000000006513f0                cmd_vf_mac_addr_vf
                0x0000000000651410                cmd_vf_mac_addr_portnum
                0x0000000000651430                cmd_vf_mac_addr_port
                0x0000000000651450                cmd_vf_mac_addr_what
                0x0000000000651470                cmd_vf_mac_addr_cmd
                0x0000000000651490                cmd_set_vf_rxmode
                0x00000000006514f0                cmd_set_vf_rxmode_on
                0x0000000000651510                cmd_set_vf_rxmode_mode
                0x0000000000651530                cmd_set_vf_rxmode_what
                0x0000000000651550                cmd_set_vf_rxmode_vfid
                0x0000000000651570                cmd_set_vf_rxmode_vf
                0x0000000000651590                cmd_set_vf_rxmode_portid
                0x00000000006515b0                cmd_set_vf_rxmode_port
                0x00000000006515d0                cmd_set_vf_rxmode_set
                0x00000000006515f0                cmd_set_vf_traffic
                0x0000000000651650                cmd_setvf_traffic_mode
                0x0000000000651670                cmd_setvf_traffic_what
                0x0000000000651690                cmd_setvf_traffic_vfid
                0x00000000006516b0                cmd_setvf_traffic_vf
                0x00000000006516d0                cmd_setvf_traffic_portid
                0x00000000006516f0                cmd_setvf_traffic_port
                0x0000000000651710                cmd_setvf_traffic_set
                0x0000000000651730                cmd_set_vf_macvlan_filter
                0x0000000000651790                cmd_set_vf_macvlan_mode
                0x00000000006517b0                cmd_set_vf_macvlan_filter_type
                0x00000000006517d0                cmd_set_vf_macvlan_mac
                0x00000000006517e0                cmd_set_vf_macvlan_vf_id
                0x0000000000651800                cmd_set_vf_macvlan_vf
                0x0000000000651820                cmd_set_vf_macvlan_portid
                0x0000000000651840                cmd_set_vf_macvlan_port
                0x0000000000651860                cmd_set_vf_macvlan_set
                0x0000000000651880                cmd_set_uc_all_hash_filter
                0x00000000006518d0                cmd_set_uc_all_hash_mode
                0x00000000006518f0                cmd_set_uc_all_hash_value
                0x0000000000651910                cmd_set_uc_all_hash_what
                0x0000000000651930                cmd_set_uc_all_hash_portid
                0x0000000000651950                cmd_set_uc_all_hash_port
                0x0000000000651970                cmd_set_uc_all_hash_set
                0x0000000000651990                cmd_set_uc_hash_filter
                0x00000000006519e0                cmd_set_uc_hash_mode
                0x0000000000651a00                cmd_set_uc_hash_mac
                0x0000000000651a10                cmd_set_uc_hash_what
                0x0000000000651a30                cmd_set_uc_hash_portid
                0x0000000000651a50                cmd_set_uc_hash_port
                0x0000000000651a70                cmd_set_uc_hash_set
                0x0000000000651a90                cmd_set_qmap
                0x0000000000651ae0                cmd_setqmap_mapvalue
                0x0000000000651b00                cmd_setqmap_queueid
                0x0000000000651b20                cmd_setqmap_portid
                0x0000000000651b40                cmd_setqmap_what
                0x0000000000651b60                cmd_setqmap_qmap
                0x0000000000651b80                cmd_setqmap_set
                0x0000000000651ba0                cmd_mac_addr
                0x0000000000651be0                cmd_mac_addr_addr
                0x0000000000651bf0                cmd_mac_addr_portnum
                0x0000000000651c10                cmd_mac_addr_what
                0x0000000000651c30                cmd_mac_addr_cmd
                0x0000000000651c50                cmd_quit
                0x0000000000651c80                cmd_quit_quit
                0x0000000000651ca0                cmd_read_rxd_txd
                0x0000000000651cf0                cmd_read_rxd_txd_desc_id
                0x0000000000651d10                cmd_read_rxd_txd_queue_id
                0x0000000000651d30                cmd_read_rxd_txd_port_id
                0x0000000000651d50                cmd_read_rxd_txd_rxd_txd
                0x0000000000651d70                cmd_read_rxd_txd_read
                0x0000000000651d90                cmd_write_reg_bit
                0x0000000000651de0                cmd_write_reg_bit_value
                0x0000000000651e00                cmd_write_reg_bit_bit_pos
                0x0000000000651e20                cmd_write_reg_bit_reg_off
                0x0000000000651e40                cmd_write_reg_bit_port_id
                0x0000000000651e60                cmd_write_reg_bit_regbit
                0x0000000000651e80                cmd_write_reg_bit_write
                0x0000000000651ea0                cmd_write_reg_bit_field
                0x0000000000651f00                cmd_write_reg_bit_field_value
                0x0000000000651f20                cmd_write_reg_bit_field_bit2_pos
                0x0000000000651f40                cmd_write_reg_bit_field_bit1_pos
                0x0000000000651f60                cmd_write_reg_bit_field_reg_off
                0x0000000000651f80                cmd_write_reg_bit_field_port_id
                0x0000000000651fa0                cmd_write_reg_bit_field_regfield
                0x0000000000651fc0                cmd_write_reg_bit_field_write
                0x0000000000651fe0                cmd_write_reg
                0x0000000000652030                cmd_write_reg_value
                0x0000000000652050                cmd_write_reg_reg_off
                0x0000000000652070                cmd_write_reg_port_id
                0x0000000000652090                cmd_write_reg_reg
                0x00000000006520b0                cmd_write_reg_write
                0x00000000006520d0                cmd_read_reg_bit
                0x0000000000652120                cmd_read_reg_bit_bit_pos
                0x0000000000652140                cmd_read_reg_bit_reg_off
                0x0000000000652160                cmd_read_reg_bit_port_id
                0x0000000000652180                cmd_read_reg_bit_regbit
                0x00000000006521a0                cmd_read_reg_bit_read
                0x00000000006521c0                cmd_read_reg_bit_field
                0x0000000000652210                cmd_read_reg_bit_field_bit2_pos
                0x0000000000652230                cmd_read_reg_bit_field_bit1_pos
                0x0000000000652250                cmd_read_reg_bit_field_reg_off
                0x0000000000652270                cmd_read_reg_bit_field_port_id
                0x0000000000652290                cmd_read_reg_bit_field_regfield
                0x00000000006522b0                cmd_read_reg_bit_field_read
                0x00000000006522d0                cmd_read_reg
                0x0000000000652310                cmd_read_reg_reg_off
                0x0000000000652330                cmd_read_reg_port_id
                0x0000000000652350                cmd_read_reg_reg
                0x0000000000652370                cmd_read_reg_read
                0x0000000000652390                cmd_showqueue
                0x00000000006523e0                cmd_showqueue_queuenum
                0x0000000000652400                cmd_showqueue_portnum
                0x0000000000652420                cmd_showqueue_what
                0x0000000000652440                cmd_showqueue_type
                0x0000000000652460                cmd_showqueue_show
                0x0000000000652480                cmd_showport
                0x00000000006524c0                cmd_showport_portnum
                0x00000000006524e0                cmd_showport_what
                0x0000000000652500                cmd_showport_port
                0x0000000000652520                cmd_showport_show
                0x0000000000652540                cmd_showportall
                0x0000000000652580                cmd_showportall_all
                0x00000000006525a0                cmd_showportall_what
                0x00000000006525c0                cmd_showportall_port
                0x00000000006525e0                cmd_showportall_show
                0x0000000000652600                cmd_showcfg
                0x0000000000652640                cmd_showcfg_what
                0x0000000000652660                cmd_showcfg_port
                0x0000000000652680                cmd_showcfg_show
                0x00000000006526a0                cmd_set_link_down
                0x00000000006526e0                cmd_set_link_down_port_id
                0x0000000000652700                cmd_set_link_down_port
                0x0000000000652720                cmd_set_link_down_link_down
                0x0000000000652740                cmd_set_link_down_set
                0x0000000000652760                cmd_set_link_up
                0x00000000006527a0                cmd_set_link_up_port_id
                0x00000000006527c0                cmd_set_link_up_port
                0x00000000006527e0                cmd_set_link_up_link_up
                0x0000000000652800                cmd_set_link_up_set
                0x0000000000652820                cmd_start_tx_first
                0x0000000000652850                cmd_start_tx_first_tx_first
                0x0000000000652870                cmd_start_tx_first_start
                0x0000000000652890                cmd_start
                0x00000000006528c0                cmd_start_start
                0x00000000006528e0                cmd_reset
                0x0000000000652910                cmd_reset_def
                0x0000000000652930                cmd_reset_set
                0x0000000000652950                cmd_priority_flow_control_set
                0x00000000006529d0                cmd_pfc_set_portid
                0x00000000006529f0                cmd_pfc_set_priority
                0x0000000000652a10                cmd_pfc_set_pause_time
                0x0000000000652a30                cmd_pfc_set_low_water
                0x0000000000652a50                cmd_pfc_set_high_water
                0x0000000000652a70                cmd_pfc_set_tx_mode
                0x0000000000652a90                cmd_pfc_set_tx
                0x0000000000652ab0                cmd_pfc_set_rx_mode
                0x0000000000652ad0                cmd_pfc_set_rx
                0x0000000000652af0                cmd_pfc_set_flow_ctrl
                0x0000000000652b10                cmd_pfc_set_set
                0x0000000000652b30                cmd_link_flow_control_set_autoneg
                0x0000000000652b80                cmd_link_flow_control_set_macfwd
                0x0000000000652bd0                cmd_link_flow_control_set_xon
                0x0000000000652c20                cmd_link_flow_control_set_pt
                0x0000000000652c70                cmd_link_flow_control_set_lw
                0x0000000000652cc0                cmd_link_flow_control_set_hw
                0x0000000000652d10                cmd_link_flow_control_set_tx
                0x0000000000652d60                cmd_link_flow_control_set_rx
                0x0000000000652db0                cmd_link_flow_control_set
                0x0000000000652e50                cmd_lfc_set_portid
                0x0000000000652e70                cmd_lfc_set_autoneg
                0x0000000000652e90                cmd_lfc_set_autoneg_str
                0x0000000000652eb0                cmd_lfc_set_mac_ctrl_frame_fwd
                0x0000000000652ed0                cmd_lfc_set_mac_ctrl_frame_fwd_mode
                0x0000000000652ef0                cmd_lfc_set_send_xon
                0x0000000000652f10                cmd_lfc_set_send_xon_str
                0x0000000000652f30                cmd_lfc_set_pause_time
                0x0000000000652f50                cmd_lfc_set_pause_time_str
                0x0000000000652f70                cmd_lfc_set_low_water
                0x0000000000652f90                cmd_lfc_set_low_water_str
                0x0000000000652fb0                cmd_lfc_set_high_water
                0x0000000000652fd0                cmd_lfc_set_high_water_str
                0x0000000000652ff0                cmd_lfc_set_tx_mode
                0x0000000000653010                cmd_lfc_set_tx
                0x0000000000653030                cmd_lfc_set_rx_mode
                0x0000000000653050                cmd_lfc_set_rx
                0x0000000000653070                cmd_lfc_set_flow_ctrl
                0x0000000000653090                cmd_lfc_set_set
                0x00000000006530b0                cmd_set_allmulti_mode_one
                0x00000000006530f0                cmd_set_allmulti_mode_all
                0x0000000000653130                cmd_setallmulti_mode
                0x0000000000653150                cmd_setallmulti_portnum
                0x0000000000653170                cmd_setallmulti_portall
                0x0000000000653190                cmd_setallmulti_allmulti
                0x00000000006531b0                cmd_setallmulti_set
                0x00000000006531d0                cmd_set_promisc_mode_one
                0x0000000000653210                cmd_set_promisc_mode_all
                0x0000000000653250                cmd_setpromisc_mode
                0x0000000000653270                cmd_setpromisc_portnum
                0x0000000000653290                cmd_setpromisc_portall
                0x00000000006532b0                cmd_setpromisc_promisc
                0x00000000006532d0                cmd_setpromisc_set
                0x00000000006532f0                cmd_set_burst_tx_retry
                0x0000000000653350                cmd_set_burst_tx_retry_retry_num
                0x0000000000653370                cmd_set_burst_tx_retry_retry
                0x0000000000653390                cmd_set_burst_tx_retry_time
                0x00000000006533b0                cmd_set_burst_tx_retry_delay
                0x00000000006533d0                cmd_set_burst_tx_retry_tx
                0x00000000006533f0                cmd_set_burst_tx_retry_burst
                0x0000000000653410                cmd_set_burst_tx_retry_set
                0x0000000000653430                cmd_set_fwd_mode
                0x0000000000653470                cmd_setfwd_mode
                0x0000000000653490                cmd_setfwd_fwd
                0x00000000006534b0                cmd_setfwd_set
                0x00000000006534d0                cmd_set_bond_mon_period
                0x0000000000653520                cmd_set_bond_mon_period_period_ms
                0x0000000000653540                cmd_set_bond_mon_period_portnum
                0x0000000000653560                cmd_set_bond_mon_period_mon_period
                0x0000000000653580                cmd_set_bond_mon_period_bonding
                0x00000000006535a0                cmd_set_bond_mon_period_set
                0x00000000006535c0                cmd_set_bond_mac_addr
                0x0000000000653610                cmd_set_bond_mac_addr_addr
                0x0000000000653620                cmd_set_bond_mac_addr_portnum
                0x0000000000653640                cmd_set_bond_mac_addr_mac
                0x0000000000653660                cmd_set_bond_mac_addr_bonding
                0x0000000000653680                cmd_set_bond_mac_addr_set
                0x00000000006536a0                cmd_create_bonded_device
                0x00000000006536f0                cmd_createbonded_device_socket
                0x0000000000653710                cmd_createbonded_device_mode
                0x0000000000653730                cmd_createbonded_device_device
                0x0000000000653750                cmd_createbonded_device_bonded
                0x0000000000653770                cmd_createbonded_device_create
                0x0000000000653790                cmd_remove_bonding_slave
                0x00000000006537e0                cmd_removebonding_slave_port
                0x0000000000653800                cmd_removebonding_slave_slaveid
                0x0000000000653820                cmd_removebonding_slave_slave
                0x0000000000653840                cmd_removebonding_slave_bonding
                0x0000000000653860                cmd_removebonding_slave_remove
                0x0000000000653880                cmd_add_bonding_slave
                0x00000000006538d0                cmd_addbonding_slave_port
                0x00000000006538f0                cmd_addbonding_slave_slaveid
                0x0000000000653910                cmd_addbonding_slave_slave
                0x0000000000653930                cmd_addbonding_slave_bonding
                0x0000000000653950                cmd_addbonding_slave_add
                0x0000000000653970                cmd_set_bonding_primary
                0x00000000006539c0                cmd_setbonding_primary_port
                0x00000000006539e0                cmd_setbonding_primary_slave
                0x0000000000653a00                cmd_setbonding_primary_primary
                0x0000000000653a20                cmd_setbonding_primary_bonding
                0x0000000000653a40                cmd_setbonding_primary_set
                0x0000000000653a60                cmd_show_bonding_config
                0x0000000000653aa0                cmd_showbonding_config_port
                0x0000000000653ac0                cmd_showbonding_config_config
                0x0000000000653ae0                cmd_showbonding_config_bonding
                0x0000000000653b00                cmd_showbonding_config_show
                0x0000000000653b20                cmd_set_balance_xmit_policy
                0x0000000000653b70                cmd_setbonding_balance_xmit_policy_policy
                0x0000000000653b90                cmd_setbonding_balance_xmit_policy_port
                0x0000000000653bb0                cmd_setbonding_balance_xmit_policy_balance_xmit_policy
                0x0000000000653bd0                cmd_setbonding_balance_xmit_policy_bonding
                0x0000000000653bf0                cmd_setbonding_balance_xmit_policy_set
                0x0000000000653c10                cmd_set_bonding_mode
                0x0000000000653c60                cmd_setbonding_mode_port
                0x0000000000653c80                cmd_setbonding_mode_value
                0x0000000000653ca0                cmd_setbonding_mode_mode
                0x0000000000653cc0                cmd_setbonding_mode_bonding
                0x0000000000653ce0                cmd_setbonding_mode_set
                0x0000000000653d00                cmd_set_link_check
                0x0000000000653d40                cmd_setlinkcheck_mode
                0x0000000000653d60                cmd_setlinkcheck_link_check
                0x0000000000653d80                cmd_setlinkcheck_set
                0x0000000000653da0                cmd_set_flush_rx
                0x0000000000653de0                cmd_setflushrx_mode
                0x0000000000653e00                cmd_setflushrx_flush_rx
                0x0000000000653e20                cmd_setflushrx_set
                0x0000000000653e40                cmd_tso_show
                0x0000000000653e80                cmd_tso_show_mode
                0x0000000000653ea0                cmd_tso_set
                0x0000000000653ee0                cmd_tso_set_portid
                0x0000000000653f00                cmd_tso_set_tso_segsz
                0x0000000000653f20                cmd_tso_set_mode
                0x0000000000653f40                cmd_tso_set_tso
                0x0000000000653f60                cmd_csum_tunnel
                0x0000000000653fa0                cmd_csum_tunnel_portid
                0x0000000000653fc0                cmd_csum_tunnel_onoff
                0x0000000000653fe0                cmd_csum_tunnel_parse
                0x0000000000654000                cmd_csum_tunnel_csum
                0x0000000000654020                cmd_csum_show
                0x0000000000654060                cmd_csum_mode_show
                0x0000000000654080                cmd_csum_set
                0x00000000006540d0                cmd_csum_portid
                0x00000000006540f0                cmd_csum_hwsw
                0x0000000000654110                cmd_csum_proto
                0x0000000000654130                cmd_csum_mode
                0x0000000000654150                cmd_csum_csum
                0x0000000000654170                cmd_tx_vlan_reset
                0x00000000006541b0                cmd_tx_vlan_reset_portid
                0x00000000006541d0                cmd_tx_vlan_reset_reset
                0x00000000006541f0                cmd_tx_vlan_reset_tx_vlan
                0x0000000000654210                cmd_tx_vlan_set_pvid
                0x0000000000654260                cmd_tx_vlan_set_pvid_mode
                0x0000000000654280                cmd_tx_vlan_set_pvid_vlan_id
                0x00000000006542a0                cmd_tx_vlan_set_pvid_port_id
                0x00000000006542c0                cmd_tx_vlan_set_pvid_pvid
                0x00000000006542e0                cmd_tx_vlan_set_pvid_set
                0x0000000000654300                cmd_tx_vlan_set_pvid_tx_vlan
                0x0000000000654320                cmd_tx_vlan_set_qinq
                0x0000000000654370                cmd_tx_vlan_set_qinq_vlanid_outer
                0x0000000000654390                cmd_tx_vlan_set_qinq_vlanid
                0x00000000006543b0                cmd_tx_vlan_set_qinq_portid
                0x00000000006543d0                cmd_tx_vlan_set_qinq_set
                0x00000000006543f0                cmd_tx_vlan_set_qinq_tx_vlan
                0x0000000000654410                cmd_tx_vlan_set
                0x0000000000654450                cmd_tx_vlan_set_portid
                0x0000000000654470                cmd_tx_vlan_set_vlanid
                0x0000000000654490                cmd_tx_vlan_set_set
                0x00000000006544b0                cmd_tx_vlan_set_tx_vlan
                0x00000000006544d0                cmd_rx_vlan_filter
                0x0000000000654510                cmd_rx_vlan_filter_portid
                0x0000000000654530                cmd_rx_vlan_filter_vlanid
                0x0000000000654550                cmd_rx_vlan_filter_what
                0x0000000000654570                cmd_rx_vlan_filter_rx_vlan
                0x0000000000654590                cmd_vlan_tpid
                0x00000000006545e0                cmd_vlan_tpid_portid
                0x0000000000654600                cmd_vlan_tpid_tpid
                0x0000000000654620                cmd_vlan_tpid_what
                0x0000000000654640                cmd_vlan_tpid_set
                0x0000000000654660                cmd_vlan_tpid_vlan
                0x0000000000654680                cmd_vlan_offload
                0x00000000006546d0                cmd_vlan_offload_portid
                0x00000000006546f0                cmd_vlan_offload_on
                0x0000000000654710                cmd_vlan_offload_what
                0x0000000000654730                cmd_vlan_offload_set
                0x0000000000654750                cmd_vlan_offload_vlan
                0x0000000000654770                cmd_rx_vlan_filter_all
                0x00000000006547b0                cmd_rx_vlan_filter_all_portid
                0x00000000006547d0                cmd_rx_vlan_filter_all_all
                0x00000000006547f0                cmd_rx_vlan_filter_all_what
                0x0000000000654810                cmd_rx_vlan_filter_all_rx_vlan
                0x0000000000654830                cmd_set_txsplit
                0x0000000000654870                cmd_set_txsplit_mode
                0x0000000000654890                cmd_set_txsplit_name
                0x00000000006548b0                cmd_set_txsplit_keyword
                0x00000000006548d0                cmd_set_txpkts
                0x0000000000654910                cmd_set_txpkts_lengths
                0x0000000000654930                cmd_set_txpkts_name
                0x0000000000654950                cmd_set_txpkts_keyword
                0x0000000000654970                cmd_set_numbers
                0x00000000006549b0                cmd_set_value
                0x00000000006549d0                cmd_set_what
                0x00000000006549f0                cmd_set_set
                0x0000000000654a10                cmd_set_fwd_mask
                0x0000000000654a50                cmd_setmask_value
                0x0000000000654a70                cmd_setmask_mask
                0x0000000000654a90                cmd_setmask_set
                0x0000000000654ab0                cmd_set_fwd_list
                0x0000000000654af0                cmd_set_list_of_items
                0x0000000000654b10                cmd_set_list_name
                0x0000000000654b30                cmd_set_list_keyword
                0x0000000000654b50                cmd_stop
                0x0000000000654b80                cmd_stop_stop
                0x0000000000654ba0                cmd_config_threshold
                0x0000000000654bf0                cmd_config_threshold_value
                0x0000000000654c10                cmd_config_threshold_name
                0x0000000000654c30                cmd_config_threshold_all
                0x0000000000654c50                cmd_config_threshold_keyword
                0x0000000000654c70                cmd_config_threshold_port
                0x0000000000654c90                cmd_config_thresh
                0x0000000000654ce0                cmd_config_thresh_value
                0x0000000000654d00                cmd_config_thresh_name
                0x0000000000654d20                cmd_config_thresh_all
                0x0000000000654d40                cmd_config_thresh_keyword
                0x0000000000654d60                cmd_config_thresh_port
                0x0000000000654d80                cmd_config_burst
                0x0000000000654dd0                cmd_config_burst_value
                0x0000000000654df0                cmd_config_burst_name
                0x0000000000654e10                cmd_config_burst_all
                0x0000000000654e30                cmd_config_burst_keyword
                0x0000000000654e50                cmd_config_burst_port
                0x0000000000654e70                cmd_config_dcb
                0x0000000000654ee0                cmd_config_dcb_pfc_en
                0x0000000000654f00                cmd_config_dcb_pfc
                0x0000000000654f20                cmd_config_dcb_num_tcs
                0x0000000000654f40                cmd_config_dcb_vt_en
                0x0000000000654f60                cmd_config_dcb_vt
                0x0000000000654f80                cmd_config_dcb_dcb
                0x0000000000654fa0                cmd_config_dcb_port_id
                0x0000000000654fc0                cmd_config_dcb_config
                0x0000000000654fe0                cmd_config_dcb_port
                0x0000000000655000                cmd_showport_rss_hash_key
                0x0000000000655050                cmd_showport_rss_hash
                0x00000000006550a0                cmd_showport_rss_hash_rss_key
                0x00000000006550c0                cmd_showport_rss_hash_rss_hash_info
                0x00000000006550e0                cmd_showport_rss_hash_rss_hash
                0x0000000000655100                cmd_showport_rss_hash_port_id
                0x0000000000655120                cmd_showport_rss_hash_port
                0x0000000000655140                cmd_showport_rss_hash_show
                0x0000000000655160                cmd_showport_reta
                0x00000000006551c0                cmd_showport_reta_list_of_items
                0x00000000006551e0                cmd_showport_reta_size
                0x0000000000655200                cmd_showport_reta_reta
                0x0000000000655220                cmd_showport_reta_rss
                0x0000000000655240                cmd_showport_reta_port_id
                0x0000000000655260                cmd_showport_reta_port
                0x0000000000655280                cmd_showport_reta_show
                0x00000000006552a0                cmd_config_rss_reta
                0x00000000006552f0                cmd_config_rss_reta_list_of_items
                0x0000000000655310                cmd_config_rss_reta_list_name
                0x0000000000655330                cmd_config_rss_reta_name
                0x0000000000655350                cmd_config_rss_reta_port_id
                0x0000000000655370                cmd_config_rss_reta_keyword
                0x0000000000655390                cmd_config_rss_reta_port
                0x00000000006553b0                cmd_config_rxtx_queue
                0x0000000000655400                cmd_config_rxtx_queue_opname
                0x0000000000655420                cmd_config_rxtx_queue_qid
                0x0000000000655440                cmd_config_rxtx_queue_rxtxq
                0x0000000000655460                cmd_config_rxtx_queue_portid
                0x0000000000655480                cmd_config_rxtx_queue_port
                0x00000000006554a0                cmd_config_rss_hash_key
                0x00000000006554f0                cmd_config_rss_hash_key_value
                0x0000000000655510                cmd_config_rss_hash_key_rss_type
                0x0000000000655530                cmd_config_rss_hash_key_rss_hash_key
                0x0000000000655550                cmd_config_rss_hash_key_port_id
                0x0000000000655570                cmd_config_rss_hash_key_config
                0x0000000000655590                cmd_config_rss_hash_key_port
                0x00000000006555b0                cmd_config_rss
                0x0000000000655600                cmd_config_rss_value
                0x0000000000655620                cmd_config_rss_name
                0x0000000000655640                cmd_config_rss_all
                0x0000000000655660                cmd_config_rss_keyword
                0x0000000000655680                cmd_config_rss_port
                0x00000000006556a0                cmd_config_rx_mode_flag
                0x00000000006556f0                cmd_config_rx_mode_flag_value
                0x0000000000655710                cmd_config_rx_mode_flag_name
                0x0000000000655730                cmd_config_rx_mode_flag_all
                0x0000000000655750                cmd_config_rx_mode_flag_keyword
                0x0000000000655770                cmd_config_rx_mode_flag_port
                0x0000000000655790                cmd_config_mtu
                0x00000000006557e0                cmd_config_mtu_value
                0x0000000000655800                cmd_config_mtu_port_id
                0x0000000000655820                cmd_config_mtu_mtu
                0x0000000000655840                cmd_config_mtu_keyword
                0x0000000000655860                cmd_config_mtu_port
                0x0000000000655880                cmd_config_max_pkt_len
                0x00000000006558d0                cmd_config_max_pkt_len_value
                0x00000000006558f0                cmd_config_max_pkt_len_name
                0x0000000000655910                cmd_config_max_pkt_len_all
                0x0000000000655930                cmd_config_max_pkt_len_keyword
                0x0000000000655950                cmd_config_max_pkt_len_port
                0x0000000000655970                cmd_config_rx_tx
                0x00000000006559c0                cmd_config_rx_tx_value
                0x00000000006559e0                cmd_config_rx_tx_name
                0x0000000000655a00                cmd_config_rx_tx_all
                0x0000000000655a20                cmd_config_rx_tx_keyword
                0x0000000000655a40                cmd_config_rx_tx_port
                0x0000000000655a60                cmd_config_speed_specific
                0x0000000000655ac0                cmd_config_speed_specific_value2
                0x0000000000655ae0                cmd_config_speed_specific_item2
                0x0000000000655b00                cmd_config_speed_specific_value1
                0x0000000000655b20                cmd_config_speed_specific_item1
                0x0000000000655b40                cmd_config_speed_specific_id
                0x0000000000655b60                cmd_config_speed_specific_keyword
                0x0000000000655b80                cmd_config_speed_specific_port
                0x0000000000655ba0                cmd_config_speed_all
                0x0000000000655c00                cmd_config_speed_all_value2
                0x0000000000655c20                cmd_config_speed_all_item2
                0x0000000000655c40                cmd_config_speed_all_value1
                0x0000000000655c60                cmd_config_speed_all_item1
                0x0000000000655c80                cmd_config_speed_all_all
                0x0000000000655ca0                cmd_config_speed_all_keyword
                0x0000000000655cc0                cmd_config_speed_all_port
                0x0000000000655ce0                cmd_operate_detach_port
                0x0000000000655d20                cmd_operate_detach_port_port_id
                0x0000000000655d40                cmd_operate_detach_port_keyword
                0x0000000000655d60                cmd_operate_detach_port_port
                0x0000000000655d80                cmd_operate_attach_port
                0x0000000000655dc0                cmd_operate_attach_port_identifier
                0x0000000000655de0                cmd_operate_attach_port_keyword
                0x0000000000655e00                cmd_operate_attach_port_port
                0x0000000000655e20                cmd_operate_specific_port
                0x0000000000655e60                cmd_operate_specific_port_id
                0x0000000000655e80                cmd_operate_specific_port_port
                0x0000000000655ea0                cmd_operate_specific_port_cmd
                0x0000000000655ec0                cmd_operate_port
                0x0000000000655f00                cmd_operate_port_all_all
                0x0000000000655f20                cmd_operate_port_all_port
                0x0000000000655f40                cmd_operate_port_all_cmd
                0x0000000000655f60                cmd_help_long
                0x0000000000655f90                cmd_help_long_section
                0x0000000000655fb0                cmd_help_long_help
                0x0000000000655fd0                cmd_help_brief
                0x0000000000656000                cmd_help_brief_help
 *fill*         0x0000000000656018       0x28 
 .data          0x0000000000656040      0x1dc config.o
 .data          0x000000000065621c        0x0 iofwd.o
 *fill*         0x000000000065621c        0x4 
 .data.rel.local
                0x0000000000656220       0x20 iofwd.o
                0x0000000000656220                io_fwd_engine
 .data          0x0000000000656240        0x0 macfwd.o
 .data.rel.local
                0x0000000000656240       0x20 macfwd.o
                0x0000000000656240                mac_fwd_engine
 .data          0x0000000000656260        0x8 macfwd-retry.o
                0x0000000000656260                burst_tx_retry_num
                0x0000000000656264                burst_tx_delay_time
 *fill*         0x0000000000656268       0x18 
 .data.rel.local
                0x0000000000656280       0x20 macfwd-retry.o
                0x0000000000656280                mac_retry_fwd_engine
 .data          0x00000000006562a0        0x0 macswap.o
 .data.rel.local
                0x00000000006562a0       0x20 macswap.o
                0x00000000006562a0                mac_swap_engine
 .data          0x00000000006562c0        0x0 flowgen.o
 .data.rel.local
                0x00000000006562c0       0x20 flowgen.o
                0x00000000006562c0                flow_gen_engine
 .data          0x00000000006562e0        0x0 rxonly.o
 .data.rel.local
                0x00000000006562e0       0x20 rxonly.o
                0x00000000006562e0                rx_only_engine
 .data          0x0000000000656300        0x0 txonly.o
 .data.rel.local
                0x0000000000656300       0x20 txonly.o
                0x0000000000656300                tx_only_engine
 .data          0x0000000000656320        0x0 csumonly.o
 .data.rel.local
                0x0000000000656320       0x20 csumonly.o
                0x0000000000656320                csum_fwd_engine
 .data          0x0000000000656340        0x0 icmpecho.o
 .data.rel.local
                0x0000000000656340       0x20 icmpecho.o
                0x0000000000656340                icmp_echo_engine
 .data          0x0000000000656360        0x0 mempool_anon.o
 .data          0x0000000000656360        0x0 /usr/lib/x86_64-linux-gnu/libc_nonshared.a(elf-init.oS)
 .data          0x0000000000656360        0x0 /usr/lib/gcc/x86_64-linux-gnu/4.9/crtend.o
 .data          0x0000000000656360        0x0 /usr/lib/gcc/x86_64-linux-gnu/4.9/../../../x86_64-linux-gnu/crtn.o

.tm_clone_table
                0x0000000000656360        0x0
 .tm_clone_table
                0x0000000000656360        0x0 /usr/lib/gcc/x86_64-linux-gnu/4.9/crtbegin.o
 .tm_clone_table
                0x0000000000656360        0x0 /usr/lib/gcc/x86_64-linux-gnu/4.9/crtend.o

.data1
 *(.data1)
                0x0000000000656360                _edata = .
                [!provide]                        PROVIDE (edata, .)
                0x0000000000656360                . = .
                0x0000000000656360                __bss_start = .

.bss            0x0000000000656380    0x50718
 *(.dynbss)
 .dynbss        0x0000000000656380        0x0 /usr/lib/gcc/x86_64-linux-gnu/4.9/../../../x86_64-linux-gnu/crt1.o
 *(.bss .bss.* .gnu.linkonce.b.*)
 .bss           0x0000000000656380        0x0 /usr/lib/gcc/x86_64-linux-gnu/4.9/../../../x86_64-linux-gnu/crt1.o
 .bss           0x0000000000656380        0x0 /usr/lib/gcc/x86_64-linux-gnu/4.9/../../../x86_64-linux-gnu/crti.o
 .bss           0x0000000000656380        0x1 /usr/lib/gcc/x86_64-linux-gnu/4.9/crtbegin.o
 *fill*         0x0000000000656381        0x3 
 .bss           0x0000000000656384       0x24 testpmd.o
                0x0000000000656384                max_socket
                0x0000000000656388                nb_rx_queue_stats_mappings
                0x000000000065638a                nb_tx_queue_stats_mappings
                0x000000000065638c                no_link_check
                0x000000000065638d                no_flush_rx
                0x000000000065638e                port_topology
                0x0000000000656390                dcb_test
                0x0000000000656391                dcb_config
                0x0000000000656394                tx_pkt_split
                0x0000000000656398                param_total_num_mbufs
                0x000000000065639c                nb_peer_eth_addrs
                0x000000000065639d                mp_anon
                0x000000000065639e                numa_support
                0x000000000065639f                auto_start
                0x00000000006563a0                interactive
                0x00000000006563a2                verbose_level
 .bss           0x00000000006563a8        0x0 parameters.o
 *fill*         0x00000000006563a8       0x18 
 .bss           0x00000000006563c0      0x184 cmdline.o
 *fill*         0x0000000000656544       0x3c 
 .bss           0x0000000000656580       0x80 config.o
 .bss           0x0000000000656600        0x0 iofwd.o
 .bss           0x0000000000656600        0x0 macfwd.o
 .bss           0x0000000000656600        0x0 macfwd-retry.o
 .bss           0x0000000000656600        0x0 macswap.o
 .bss           0x0000000000656600        0x4 flowgen.o
 .bss           0x0000000000656604        0x0 rxonly.o
 *fill*         0x0000000000656604        0xc 
 .bss           0x0000000000656610       0x24 txonly.o
 .bss           0x0000000000656634        0x0 csumonly.o
 .bss           0x0000000000656634        0x0 icmpecho.o
 .bss           0x0000000000656634        0x0 mempool_anon.o
 .bss           0x0000000000656634        0x0 /usr/lib/x86_64-linux-gnu/libc_nonshared.a(elf-init.oS)
 .bss           0x0000000000656634        0x0 /usr/lib/gcc/x86_64-linux-gnu/4.9/crtend.o
 .bss           0x0000000000656634        0x0 /usr/lib/gcc/x86_64-linux-gnu/4.9/../../../x86_64-linux-gnu/crtn.o
 *(COMMON)
 *fill*         0x0000000000656634        0xc 
 COMMON         0x0000000000656640    0x50451 testpmd.o
                0x0000000000656640                tx_queue_stats_mappings_array
                0x0000000000666640                nb_ports
                0x0000000000666660                fwd_ports_ids
                0x0000000000666680                nb_cfg_ports
                0x00000000006666c0                fwd_lcores_cpuids
                0x00000000006668c0                rxring_numa
                0x00000000006668e0                nb_fwd_lcores
                0x0000000000666900                txring_numa
                0x0000000000666920                port_numa
                0x0000000000666940                ports
                0x0000000000666980                rx_queue_stats_mappings_array
                0x00000000006a6980                nb_fwd_ports
                0x00000000006a6988                fwd_streams
                0x00000000006a6990                nb_fwd_streams
                0x00000000006a69a0                cur_fwd_config
                0x00000000006a69c0                peer_eth_addrs
                0x00000000006a6a80                nb_lcores
                0x00000000006a6a88                fwd_lcores
                0x00000000006a6a90                nb_cfg_lcores
                0x00000000006a6a98                . = ALIGN ((. != 0x0)?0x8:0x1)
 *fill*         0x00000000006a6a91        0x7 

.lbss
 *(.dynlbss)
 *(.lbss .lbss.* .gnu.linkonce.lb.*)
 *(LARGE_COMMON)
                0x00000000006a6a98                . = ALIGN (0x8)
                0x00000000006a6a98                . = SEGMENT_START ("ldata-segment", .)

.lrodata
 *(.lrodata .lrodata.* .gnu.linkonce.lr.*)

.ldata          0x0000000000aa6a98        0x0
 *(.ldata .ldata.* .gnu.linkonce.l.*)
                0x0000000000aa6a98                . = ALIGN ((. != 0x0)?0x8:0x1)
                0x0000000000aa6a98                . = ALIGN (0x8)
                0x0000000000aa6a98                _end = .
                [!provide]                        PROVIDE (end, .)
                0x0000000000aa6a98                . = DATA_SEGMENT_END (.)

.stab
 *(.stab)

.stabstr
 *(.stabstr)

.stab.excl
 *(.stab.excl)

.stab.exclstr
 *(.stab.exclstr)

.stab.index
 *(.stab.index)

.stab.indexstr
 *(.stab.indexstr)

.comment        0x0000000000000000       0x4a
 *(.comment)
 .comment       0x0000000000000000       0x25 /usr/lib/gcc/x86_64-linux-gnu/4.9/crtbegin.o
                                         0x26 (size before relaxing)
 .comment       0x0000000000000025       0x26 testpmd.o
 .comment       0x0000000000000025       0x26 parameters.o
 .comment       0x0000000000000025       0x26 cmdline.o
 .comment       0x0000000000000025       0x26 config.o
 .comment       0x0000000000000025       0x26 iofwd.o
 .comment       0x0000000000000025       0x26 macfwd.o
 .comment       0x0000000000000025       0x26 macfwd-retry.o
 .comment       0x0000000000000025       0x26 macswap.o
 .comment       0x0000000000000025       0x26 flowgen.o
 .comment       0x0000000000000025       0x26 rxonly.o
 .comment       0x0000000000000025       0x26 txonly.o
 .comment       0x0000000000000025       0x26 csumonly.o
 .comment       0x0000000000000025       0x26 icmpecho.o
 .comment       0x0000000000000025       0x26 mempool_anon.o
 .comment       0x0000000000000025       0x25 /usr/lib/x86_64-linux-gnu/libc_nonshared.a(elf-init.oS)
                                         0x26 (size before relaxing)
 .comment       0x000000000000004a       0x26 /usr/lib/gcc/x86_64-linux-gnu/4.9/crtend.o

.debug
 *(.debug)

.line
 *(.line)

.debug_srcinfo
 *(.debug_srcinfo)

.debug_sfnames
 *(.debug_sfnames)

.debug_aranges
 *(.debug_aranges)

.debug_pubnames
 *(.debug_pubnames)

.debug_info
 *(.debug_info .gnu.linkonce.wi.*)

.debug_abbrev
 *(.debug_abbrev)

.debug_line
 *(.debug_line .debug_line.* .debug_line_end)

.debug_frame
 *(.debug_frame)

.debug_str
 *(.debug_str)

.debug_loc
 *(.debug_loc)

.debug_macinfo
 *(.debug_macinfo)

.debug_weaknames
 *(.debug_weaknames)

.debug_funcnames
 *(.debug_funcnames)

.debug_typenames
 *(.debug_typenames)

.debug_varnames
 *(.debug_varnames)

.debug_pubtypes
 *(.debug_pubtypes)

.debug_ranges
 *(.debug_ranges)

.debug_macro
 *(.debug_macro)

.gnu.attributes
 *(.gnu.attributes)

/DISCARD/
 *(.note.GNU-stack)
 *(.gnu_debuglink)
 *(.gnu.lto_*)
OUTPUT(testpmd elf64-x86-64)

Cross Reference Table

Symbol                                            File
DPDK_2.0                                          /home/xyh/test/POFSwitch+DPDK+V1.0.5.3/dpdk-2.2.0/x86_64-native-linuxapp-gcc/lib/libdpdk.so
DPDK_2.1                                          /home/xyh/test/POFSwitch+DPDK+V1.0.5.3/dpdk-2.2.0/x86_64-native-linuxapp-gcc/lib/libdpdk.so
DPDK_2.2                                          /home/xyh/test/POFSwitch+DPDK+V1.0.5.3/dpdk-2.2.0/x86_64-native-linuxapp-gcc/lib/libdpdk.so
GCC_3.0                                           /usr/lib/gcc/x86_64-linux-gnu/4.9/libgcc_s.so
GCC_3.3                                           /usr/lib/gcc/x86_64-linux-gnu/4.9/libgcc_s.so
GCC_3.3.1                                         /usr/lib/gcc/x86_64-linux-gnu/4.9/libgcc_s.so
GCC_3.4                                           /usr/lib/gcc/x86_64-linux-gnu/4.9/libgcc_s.so
GCC_3.4.2                                         /usr/lib/gcc/x86_64-linux-gnu/4.9/libgcc_s.so
GCC_3.4.4                                         /usr/lib/gcc/x86_64-linux-gnu/4.9/libgcc_s.so
GCC_4.0.0                                         /usr/lib/gcc/x86_64-linux-gnu/4.9/libgcc_s.so
GCC_4.2.0                                         /usr/lib/gcc/x86_64-linux-gnu/4.9/libgcc_s.so
GCC_4.3.0                                         /usr/lib/gcc/x86_64-linux-gnu/4.9/libgcc_s.so
GCC_4.7.0                                         /usr/lib/gcc/x86_64-linux-gnu/4.9/libgcc_s.so
GCC_4.8.0                                         /usr/lib/gcc/x86_64-linux-gnu/4.9/libgcc_s.so
GLIBC_2.10                                        /lib/x86_64-linux-gnu/libc.so.6
GLIBC_2.11                                        /lib/x86_64-linux-gnu/libpthread.so.0
                                                  /lib/x86_64-linux-gnu/libc.so.6
GLIBC_2.12                                        /lib/x86_64-linux-gnu/libpthread.so.0
                                                  /lib/x86_64-linux-gnu/libc.so.6
GLIBC_2.13                                        /lib/x86_64-linux-gnu/libc.so.6
GLIBC_2.14                                        /lib/x86_64-linux-gnu/libc.so.6
GLIBC_2.15                                        /usr/lib/gcc/x86_64-linux-gnu/4.9/../../../x86_64-linux-gnu/libm.so
                                                  /lib/x86_64-linux-gnu/libc.so.6
GLIBC_2.16                                        /lib/x86_64-linux-gnu/libc.so.6
GLIBC_2.17                                        /lib/x86_64-linux-gnu/libc.so.6
GLIBC_2.18                                        /usr/lib/gcc/x86_64-linux-gnu/4.9/../../../x86_64-linux-gnu/libm.so
                                                  /lib/x86_64-linux-gnu/libc.so.6
                                                  /lib/x86_64-linux-gnu/libpthread.so.0
GLIBC_2.2.5                                       /usr/lib/gcc/x86_64-linux-gnu/4.9/../../../x86_64-linux-gnu/librt.so
                                                  /lib/x86_64-linux-gnu/ld-linux-x86-64.so.2
                                                  /lib/x86_64-linux-gnu/libc.so.6
                                                  /lib/x86_64-linux-gnu/libpthread.so.0
                                                  /usr/lib/gcc/x86_64-linux-gnu/4.9/../../../x86_64-linux-gnu/libdl.so
                                                  /usr/lib/gcc/x86_64-linux-gnu/4.9/../../../x86_64-linux-gnu/libm.so
GLIBC_2.2.6                                       /lib/x86_64-linux-gnu/libpthread.so.0
                                                  /lib/x86_64-linux-gnu/libc.so.6
GLIBC_2.3                                         /lib/x86_64-linux-gnu/libc.so.6
                                                  /lib/x86_64-linux-gnu/ld-linux-x86-64.so.2
GLIBC_2.3.2                                       /lib/x86_64-linux-gnu/libpthread.so.0
                                                  /lib/x86_64-linux-gnu/libc.so.6
GLIBC_2.3.3                                       /usr/lib/gcc/x86_64-linux-gnu/4.9/../../../x86_64-linux-gnu/librt.so
                                                  /lib/x86_64-linux-gnu/libc.so.6
                                                  /lib/x86_64-linux-gnu/libpthread.so.0
                                                  /usr/lib/gcc/x86_64-linux-gnu/4.9/../../../x86_64-linux-gnu/libdl.so
GLIBC_2.3.4                                       /usr/lib/gcc/x86_64-linux-gnu/4.9/../../../x86_64-linux-gnu/librt.so
                                                  /lib/x86_64-linux-gnu/libc.so.6
                                                  /lib/x86_64-linux-gnu/libpthread.so.0
                                                  /usr/lib/gcc/x86_64-linux-gnu/4.9/../../../x86_64-linux-gnu/libdl.so
GLIBC_2.4                                         /usr/lib/gcc/x86_64-linux-gnu/4.9/../../../x86_64-linux-gnu/librt.so
                                                  /lib/x86_64-linux-gnu/ld-linux-x86-64.so.2
                                                  /lib/x86_64-linux-gnu/libc.so.6
                                                  /lib/x86_64-linux-gnu/libpthread.so.0
                                                  /usr/lib/gcc/x86_64-linux-gnu/4.9/../../../x86_64-linux-gnu/libm.so
GLIBC_2.5                                         /lib/x86_64-linux-gnu/libc.so.6
GLIBC_2.6                                         /lib/x86_64-linux-gnu/libc.so.6
GLIBC_2.7                                         /usr/lib/gcc/x86_64-linux-gnu/4.9/../../../x86_64-linux-gnu/librt.so
                                                  /lib/x86_64-linux-gnu/libc.so.6
GLIBC_2.8                                         /lib/x86_64-linux-gnu/libc.so.6
GLIBC_2.9                                         /lib/x86_64-linux-gnu/libc.so.6
GLIBC_PRIVATE                                     /usr/lib/gcc/x86_64-linux-gnu/4.9/../../../x86_64-linux-gnu/libdl.so
                                                  /lib/x86_64-linux-gnu/ld-linux-x86-64.so.2
                                                  /lib/x86_64-linux-gnu/libc.so.6
                                                  /lib/x86_64-linux-gnu/libpthread.so.0
_DYNAMIC                                          /usr/lib/gcc/x86_64-linux-gnu/4.9/../../../x86_64-linux-gnu/crt1.o
_Exit                                             /lib/x86_64-linux-gnu/libc.so.6
_Exit@@GLIBC_2.2.5                                /lib/x86_64-linux-gnu/libc.so.6
_Exit@GLIBC_2.2.5                                 /lib/x86_64-linux-gnu/libc.so.6
_GLOBAL_OFFSET_TABLE_                             /usr/lib/gcc/x86_64-linux-gnu/4.9/../../../x86_64-linux-gnu/crt1.o
                                                  /usr/lib/x86_64-linux-gnu/libc_nonshared.a(elf-init.oS)
                                                  mempool_anon.o
                                                  icmpecho.o
                                                  csumonly.o
                                                  txonly.o
                                                  rxonly.o
                                                  flowgen.o
                                                  macswap.o
                                                  macfwd-retry.o
                                                  macfwd.o
                                                  iofwd.o
                                                  config.o
                                                  cmdline.o
                                                  parameters.o
                                                  testpmd.o
                                                  /usr/lib/gcc/x86_64-linux-gnu/4.9/../../../x86_64-linux-gnu/crti.o
_IO_fprintf                                       /lib/x86_64-linux-gnu/libc.so.6
_IO_fprintf@@GLIBC_2.2.5                          /lib/x86_64-linux-gnu/libc.so.6
_IO_fprintf@GLIBC_2.2.5                           /lib/x86_64-linux-gnu/libc.so.6
_IO_stdin_used                                    /usr/lib/gcc/x86_64-linux-gnu/4.9/../../../x86_64-linux-gnu/crt1.o
_ITM_deregisterTMCloneTable                       /lib/x86_64-linux-gnu/libpthread.so.0
                                                  /usr/lib/gcc/x86_64-linux-gnu/4.9/../../../x86_64-linux-gnu/libdl.so
                                                  /usr/lib/gcc/x86_64-linux-gnu/4.9/libgcc_s.so
                                                  /usr/lib/gcc/x86_64-linux-gnu/4.9/../../../x86_64-linux-gnu/libm.so
                                                  /usr/lib/gcc/x86_64-linux-gnu/4.9/../../../x86_64-linux-gnu/librt.so
                                                  /home/xyh/test/POFSwitch+DPDK+V1.0.5.3/dpdk-2.2.0/x86_64-native-linuxapp-gcc/lib/libdpdk.so
                                                  /usr/lib/gcc/x86_64-linux-gnu/4.9/crtbegin.o
_ITM_registerTMCloneTable                         /lib/x86_64-linux-gnu/libpthread.so.0
                                                  /usr/lib/gcc/x86_64-linux-gnu/4.9/../../../x86_64-linux-gnu/libdl.so
                                                  /usr/lib/gcc/x86_64-linux-gnu/4.9/libgcc_s.so
                                                  /usr/lib/gcc/x86_64-linux-gnu/4.9/../../../x86_64-linux-gnu/libm.so
                                                  /usr/lib/gcc/x86_64-linux-gnu/4.9/../../../x86_64-linux-gnu/librt.so
                                                  /home/xyh/test/POFSwitch+DPDK+V1.0.5.3/dpdk-2.2.0/x86_64-native-linuxapp-gcc/lib/libdpdk.so
                                                  /usr/lib/gcc/x86_64-linux-gnu/4.9/crtbegin.o
_Jv_RegisterClasses                               /lib/x86_64-linux-gnu/libpthread.so.0
                                                  /usr/lib/gcc/x86_64-linux-gnu/4.9/../../../x86_64-linux-gnu/libdl.so
                                                  /usr/lib/gcc/x86_64-linux-gnu/4.9/libgcc_s.so
                                                  /usr/lib/gcc/x86_64-linux-gnu/4.9/../../../x86_64-linux-gnu/libm.so
                                                  /usr/lib/gcc/x86_64-linux-gnu/4.9/../../../x86_64-linux-gnu/librt.so
                                                  /home/xyh/test/POFSwitch+DPDK+V1.0.5.3/dpdk-2.2.0/x86_64-native-linuxapp-gcc/lib/libdpdk.so
                                                  /usr/lib/gcc/x86_64-linux-gnu/4.9/crtbegin.o
_LIB_VERSION                                      /usr/lib/gcc/x86_64-linux-gnu/4.9/../../../x86_64-linux-gnu/libm.so
_LIB_VERSION@@GLIBC_2.2.5                         /usr/lib/gcc/x86_64-linux-gnu/4.9/../../../x86_64-linux-gnu/libm.so
_LIB_VERSION@GLIBC_2.2.5                          /usr/lib/gcc/x86_64-linux-gnu/4.9/../../../x86_64-linux-gnu/libm.so
__TMC_END__                                       /usr/lib/gcc/x86_64-linux-gnu/4.9/crtend.o
                                                  /usr/lib/gcc/x86_64-linux-gnu/4.9/crtbegin.o
__after_morecore_hook                             /lib/x86_64-linux-gnu/libc.so.6
__after_morecore_hook@@GLIBC_2.2.5                /lib/x86_64-linux-gnu/libc.so.6
__after_morecore_hook@GLIBC_2.2.5                 /lib/x86_64-linux-gnu/libc.so.6
__close                                           /lib/x86_64-linux-gnu/libpthread.so.0
__close@@GLIBC_2.2.5                              /lib/x86_64-linux-gnu/libpthread.so.0
                                                  /lib/x86_64-linux-gnu/libc.so.6
__close@GLIBC_2.2.5                               /lib/x86_64-linux-gnu/libpthread.so.0
__connect                                         /lib/x86_64-linux-gnu/libpthread.so.0
__connect@@GLIBC_2.2.5                            /lib/x86_64-linux-gnu/libpthread.so.0
                                                  /lib/x86_64-linux-gnu/libc.so.6
__connect@GLIBC_2.2.5                             /lib/x86_64-linux-gnu/libpthread.so.0
__ctype_b_loc                                     /lib/x86_64-linux-gnu/libc.so.6
                                                  cmdline.o
__ctype_b_loc@@GLIBC_2.3                          /lib/x86_64-linux-gnu/libc.so.6
__ctype_b_loc@GLIBC_2.3                           /lib/x86_64-linux-gnu/libc.so.6
                                                  /home/xyh/test/POFSwitch+DPDK+V1.0.5.3/dpdk-2.2.0/x86_64-native-linuxapp-gcc/lib/libdpdk.so
__ctype_get_mb_cur_max                            /lib/x86_64-linux-gnu/libc.so.6
__ctype_get_mb_cur_max@@GLIBC_2.2.5               /lib/x86_64-linux-gnu/libc.so.6
__ctype_get_mb_cur_max@GLIBC_2.2.5                /lib/x86_64-linux-gnu/libc.so.6
__data_start                                      /usr/lib/gcc/x86_64-linux-gnu/4.9/../../../x86_64-linux-gnu/crt1.o
__dso_handle                                      /usr/lib/gcc/x86_64-linux-gnu/4.9/crtbegin.o
__errno_location                                  /lib/x86_64-linux-gnu/libpthread.so.0
                                                  mempool_anon.o
                                                  cmdline.o
                                                  parameters.o
__errno_location@@GLIBC_2.2.5                     /lib/x86_64-linux-gnu/libpthread.so.0
                                                  /lib/x86_64-linux-gnu/libc.so.6
__errno_location@GLIBC_2.2.5                      /lib/x86_64-linux-gnu/libpthread.so.0
                                                  /usr/lib/gcc/x86_64-linux-gnu/4.9/../../../x86_64-linux-gnu/libm.so
                                                  /home/xyh/test/POFSwitch+DPDK+V1.0.5.3/dpdk-2.2.0/x86_64-native-linuxapp-gcc/lib/libdpdk.so
__fcntl                                           /lib/x86_64-linux-gnu/libpthread.so.0
__fcntl@@GLIBC_2.2.5                              /lib/x86_64-linux-gnu/libpthread.so.0
                                                  /lib/x86_64-linux-gnu/libc.so.6
__fcntl@GLIBC_2.2.5                               /lib/x86_64-linux-gnu/libpthread.so.0
__free_hook                                       /lib/x86_64-linux-gnu/libc.so.6
__free_hook@@GLIBC_2.2.5                          /lib/x86_64-linux-gnu/libc.so.6
__free_hook@GLIBC_2.2.5                           /lib/x86_64-linux-gnu/libc.so.6
__getdelim                                        /lib/x86_64-linux-gnu/libc.so.6
__getdelim@@GLIBC_2.2.5                           /lib/x86_64-linux-gnu/libc.so.6
__getdelim@GLIBC_2.2.5                            /lib/x86_64-linux-gnu/libc.so.6
                                                  /lib/x86_64-linux-gnu/libpthread.so.0
__gmon_start__                                    /usr/lib/gcc/x86_64-linux-gnu/4.9/../../../x86_64-linux-gnu/libdl.so
                                                  /usr/lib/gcc/x86_64-linux-gnu/4.9/libgcc_s.so
                                                  /usr/lib/gcc/x86_64-linux-gnu/4.9/../../../x86_64-linux-gnu/libm.so
                                                  /usr/lib/gcc/x86_64-linux-gnu/4.9/../../../x86_64-linux-gnu/librt.so
                                                  /home/xyh/test/POFSwitch+DPDK+V1.0.5.3/dpdk-2.2.0/x86_64-native-linuxapp-gcc/lib/libdpdk.so
                                                  /usr/lib/gcc/x86_64-linux-gnu/4.9/../../../x86_64-linux-gnu/crti.o
__init_array_end                                  /usr/lib/x86_64-linux-gnu/libc_nonshared.a(elf-init.oS)
__init_array_start                                /usr/lib/x86_64-linux-gnu/libc_nonshared.a(elf-init.oS)
__isascii_l                                       /lib/x86_64-linux-gnu/libc.so.6
__isascii_l@@GLIBC_2.2.5                          /lib/x86_64-linux-gnu/libc.so.6
__isascii_l@GLIBC_2.2.5                           /lib/x86_64-linux-gnu/libc.so.6
__libc_csu_fini                                   /usr/lib/x86_64-linux-gnu/libc_nonshared.a(elf-init.oS)
                                                  /usr/lib/gcc/x86_64-linux-gnu/4.9/../../../x86_64-linux-gnu/crt1.o
__libc_csu_init                                   /usr/lib/x86_64-linux-gnu/libc_nonshared.a(elf-init.oS)
                                                  /usr/lib/gcc/x86_64-linux-gnu/4.9/../../../x86_64-linux-gnu/crt1.o
__libc_secure_getenv                              /lib/x86_64-linux-gnu/libc.so.6
__libc_secure_getenv@@GLIBC_PRIVATE               /lib/x86_64-linux-gnu/libc.so.6
__libc_secure_getenv@GLIBC_PRIVATE                /lib/x86_64-linux-gnu/libc.so.6
__libc_start_main                                 /lib/x86_64-linux-gnu/libc.so.6
                                                  /usr/lib/gcc/x86_64-linux-gnu/4.9/../../../x86_64-linux-gnu/crt1.o
__libc_start_main@@GLIBC_2.2.5                    /lib/x86_64-linux-gnu/libc.so.6
__libc_start_main@GLIBC_2.2.5                     /lib/x86_64-linux-gnu/libc.so.6
__lseek                                           /lib/x86_64-linux-gnu/libpthread.so.0
__lseek@@GLIBC_2.2.5                              /lib/x86_64-linux-gnu/libpthread.so.0
                                                  /lib/x86_64-linux-gnu/libc.so.6
__lseek@GLIBC_2.2.5                               /lib/x86_64-linux-gnu/libpthread.so.0
__malloc_hook                                     /lib/x86_64-linux-gnu/libc.so.6
__malloc_hook@@GLIBC_2.2.5                        /lib/x86_64-linux-gnu/libc.so.6
__malloc_hook@GLIBC_2.2.5                         /lib/x86_64-linux-gnu/libc.so.6
__malloc_initialize_hook                          /lib/x86_64-linux-gnu/libc.so.6
__malloc_initialize_hook@@GLIBC_2.2.5             /lib/x86_64-linux-gnu/libc.so.6
__malloc_initialize_hook@GLIBC_2.2.5              /lib/x86_64-linux-gnu/libc.so.6
__memalign_hook                                   /lib/x86_64-linux-gnu/libc.so.6
__memalign_hook@@GLIBC_2.2.5                      /lib/x86_64-linux-gnu/libc.so.6
__memalign_hook@GLIBC_2.2.5                       /lib/x86_64-linux-gnu/libc.so.6
__memcpy_chk                                      /lib/x86_64-linux-gnu/libc.so.6
                                                  csumonly.o
__memcpy_chk@@GLIBC_2.3.4                         /lib/x86_64-linux-gnu/libc.so.6
__memcpy_chk@GLIBC_2.3.4                          /lib/x86_64-linux-gnu/libc.so.6
                                                  /home/xyh/test/POFSwitch+DPDK+V1.0.5.3/dpdk-2.2.0/x86_64-native-linuxapp-gcc/lib/libdpdk.so
__memset_zero_constant_len_parameter              /lib/x86_64-linux-gnu/libc.so.6
__open                                            /lib/x86_64-linux-gnu/libpthread.so.0
__open64                                          /lib/x86_64-linux-gnu/libpthread.so.0
__open64@@GLIBC_2.2.5                             /lib/x86_64-linux-gnu/libpthread.so.0
                                                  /lib/x86_64-linux-gnu/libc.so.6
__open64@GLIBC_2.2.5                              /lib/x86_64-linux-gnu/libpthread.so.0
__open@@GLIBC_2.2.5                               /lib/x86_64-linux-gnu/libpthread.so.0
                                                  /lib/x86_64-linux-gnu/libc.so.6
__open@GLIBC_2.2.5                                /lib/x86_64-linux-gnu/libpthread.so.0
__poll                                            /lib/x86_64-linux-gnu/libc.so.6
__poll@@GLIBC_2.2.5                               /lib/x86_64-linux-gnu/libc.so.6
__poll@GLIBC_2.2.5                                /lib/x86_64-linux-gnu/libc.so.6
__pread64                                         /lib/x86_64-linux-gnu/libpthread.so.0
__pread64@@GLIBC_2.2.5                            /lib/x86_64-linux-gnu/libpthread.so.0
                                                  /lib/x86_64-linux-gnu/libc.so.6
__pread64@GLIBC_2.2.5                             /lib/x86_64-linux-gnu/libpthread.so.0
__printf_chk                                      /lib/x86_64-linux-gnu/libc.so.6
                                                  icmpecho.o
                                                  csumonly.o
                                                  txonly.o
                                                  rxonly.o
                                                  config.o
                                                  cmdline.o
                                                  parameters.o
                                                  testpmd.o
__printf_chk@@GLIBC_2.3.4                         /lib/x86_64-linux-gnu/libc.so.6
__printf_chk@GLIBC_2.3.4                          /lib/x86_64-linux-gnu/libc.so.6
                                                  /home/xyh/test/POFSwitch+DPDK+V1.0.5.3/dpdk-2.2.0/x86_64-native-linuxapp-gcc/lib/libdpdk.so
__pwrite64                                        /lib/x86_64-linux-gnu/libpthread.so.0
__pwrite64@@GLIBC_2.2.5                           /lib/x86_64-linux-gnu/libpthread.so.0
                                                  /lib/x86_64-linux-gnu/libc.so.6
__pwrite64@GLIBC_2.2.5                            /lib/x86_64-linux-gnu/libpthread.so.0
__read                                            /lib/x86_64-linux-gnu/libpthread.so.0
__read@@GLIBC_2.2.5                               /lib/x86_64-linux-gnu/libpthread.so.0
                                                  /lib/x86_64-linux-gnu/libc.so.6
__read@GLIBC_2.2.5                                /lib/x86_64-linux-gnu/libpthread.so.0
__realloc_hook                                    /lib/x86_64-linux-gnu/libc.so.6
__realloc_hook@@GLIBC_2.2.5                       /lib/x86_64-linux-gnu/libc.so.6
__realloc_hook@GLIBC_2.2.5                        /lib/x86_64-linux-gnu/libc.so.6
__rte_panic                                       /home/xyh/test/POFSwitch+DPDK+V1.0.5.3/dpdk-2.2.0/x86_64-native-linuxapp-gcc/lib/libdpdk.so
                                                  mempool_anon.o
                                                  csumonly.o
                                                  txonly.o
                                                  flowgen.o
                                                  testpmd.o
__rte_panic@@DPDK_2.0                             /home/xyh/test/POFSwitch+DPDK+V1.0.5.3/dpdk-2.2.0/x86_64-native-linuxapp-gcc/lib/libdpdk.so
__rte_panic@DPDK_2.0                              /home/xyh/test/POFSwitch+DPDK+V1.0.5.3/dpdk-2.2.0/x86_64-native-linuxapp-gcc/lib/libdpdk.so
__secure_getenv@GLIBC_2.2.5                       /lib/x86_64-linux-gnu/libc.so.6
__send                                            /lib/x86_64-linux-gnu/libpthread.so.0
__send@@GLIBC_2.2.5                               /lib/x86_64-linux-gnu/libpthread.so.0
                                                  /lib/x86_64-linux-gnu/libc.so.6
__send@GLIBC_2.2.5                                /lib/x86_64-linux-gnu/libpthread.so.0
__snprintf_chk                                    /lib/x86_64-linux-gnu/libc.so.6
                                                  icmpecho.o
                                                  rxonly.o
                                                  config.o
                                                  cmdline.o
                                                  parameters.o
                                                  testpmd.o
__snprintf_chk@@GLIBC_2.3.4                       /lib/x86_64-linux-gnu/libc.so.6
__snprintf_chk@GLIBC_2.3.4                        /lib/x86_64-linux-gnu/libc.so.6
                                                  /home/xyh/test/POFSwitch+DPDK+V1.0.5.3/dpdk-2.2.0/x86_64-native-linuxapp-gcc/lib/libdpdk.so
__sprintf_chk                                     /lib/x86_64-linux-gnu/libc.so.6
                                                  icmpecho.o
__sprintf_chk@@GLIBC_2.3.4                        /lib/x86_64-linux-gnu/libc.so.6
__sprintf_chk@GLIBC_2.3.4                         /lib/x86_64-linux-gnu/libc.so.6
                                                  /home/xyh/test/POFSwitch+DPDK+V1.0.5.3/dpdk-2.2.0/x86_64-native-linuxapp-gcc/lib/libdpdk.so
__stack_chk_fail                                  /lib/x86_64-linux-gnu/libc.so.6
                                                  icmpecho.o
                                                  csumonly.o
                                                  txonly.o
                                                  rxonly.o
                                                  flowgen.o
                                                  macswap.o
                                                  macfwd-retry.o
                                                  macfwd.o
                                                  iofwd.o
                                                  config.o
                                                  cmdline.o
                                                  parameters.o
                                                  testpmd.o
__stack_chk_fail@@GLIBC_2.4                       /lib/x86_64-linux-gnu/libc.so.6
__stack_chk_fail@GLIBC_2.4                        /lib/x86_64-linux-gnu/libc.so.6
                                                  /home/xyh/test/POFSwitch+DPDK+V1.0.5.3/dpdk-2.2.0/x86_64-native-linuxapp-gcc/lib/libdpdk.so
__stpcpy_chk                                      /lib/x86_64-linux-gnu/libc.so.6
                                                  config.o
__stpcpy_chk@@GLIBC_2.3.4                         /lib/x86_64-linux-gnu/libc.so.6
__stpcpy_chk@GLIBC_2.3.4                          /lib/x86_64-linux-gnu/libc.so.6
__strtoll_l                                       /lib/x86_64-linux-gnu/libc.so.6
__strtoll_l@@GLIBC_2.2.5                          /lib/x86_64-linux-gnu/libc.so.6
__strtoll_l@GLIBC_2.2.5                           /lib/x86_64-linux-gnu/libc.so.6
__strtoull_l                                      /lib/x86_64-linux-gnu/libc.so.6
__strtoull_l@@GLIBC_2.2.5                         /lib/x86_64-linux-gnu/libc.so.6
__strtoull_l@GLIBC_2.2.5                          /lib/x86_64-linux-gnu/libc.so.6
__tls_get_addr                                    /lib/x86_64-linux-gnu/ld-linux-x86-64.so.2
                                                  mempool_anon.o
                                                  icmpecho.o
                                                  csumonly.o
                                                  txonly.o
                                                  rxonly.o
                                                  flowgen.o
                                                  macswap.o
                                                  macfwd-retry.o
                                                  macfwd.o
                                                  iofwd.o
                                                  testpmd.o
__tls_get_addr@@GLIBC_2.3                         /lib/x86_64-linux-gnu/ld-linux-x86-64.so.2
__tls_get_addr@GLIBC_2.3                          /lib/x86_64-linux-gnu/ld-linux-x86-64.so.2
                                                  /lib/x86_64-linux-gnu/libc.so.6
                                                  /lib/x86_64-linux-gnu/libpthread.so.0
                                                  /home/xyh/test/POFSwitch+DPDK+V1.0.5.3/dpdk-2.2.0/x86_64-native-linuxapp-gcc/lib/libdpdk.so
__toascii_l                                       /lib/x86_64-linux-gnu/libc.so.6
__toascii_l@@GLIBC_2.2.5                          /lib/x86_64-linux-gnu/libc.so.6
__toascii_l@GLIBC_2.2.5                           /lib/x86_64-linux-gnu/libc.so.6
__vsnprintf                                       /lib/x86_64-linux-gnu/libc.so.6
__vsnprintf@@GLIBC_2.2.5                          /lib/x86_64-linux-gnu/libc.so.6
__vsnprintf@GLIBC_2.2.5                           /lib/x86_64-linux-gnu/libc.so.6
__vsscanf                                         /lib/x86_64-linux-gnu/libc.so.6
__vsscanf@@GLIBC_2.2.5                            /lib/x86_64-linux-gnu/libc.so.6
__vsscanf@GLIBC_2.2.5                             /lib/x86_64-linux-gnu/libc.so.6
__wait                                            /lib/x86_64-linux-gnu/libpthread.so.0
__wait@@GLIBC_2.2.5                               /lib/x86_64-linux-gnu/libpthread.so.0
                                                  /lib/x86_64-linux-gnu/libc.so.6
__wait@GLIBC_2.2.5                                /lib/x86_64-linux-gnu/libpthread.so.0
__wcstoll_l                                       /lib/x86_64-linux-gnu/libc.so.6
__wcstoll_l@@GLIBC_2.2.5                          /lib/x86_64-linux-gnu/libc.so.6
__wcstoll_l@GLIBC_2.2.5                           /lib/x86_64-linux-gnu/libc.so.6
__wcstoull_l                                      /lib/x86_64-linux-gnu/libc.so.6
__wcstoull_l@@GLIBC_2.2.5                         /lib/x86_64-linux-gnu/libc.so.6
__wcstoull_l@GLIBC_2.2.5                          /lib/x86_64-linux-gnu/libc.so.6
__write                                           /lib/x86_64-linux-gnu/libpthread.so.0
__write@@GLIBC_2.2.5                              /lib/x86_64-linux-gnu/libpthread.so.0
                                                  /lib/x86_64-linux-gnu/libc.so.6
__write@GLIBC_2.2.5                               /lib/x86_64-linux-gnu/libpthread.so.0
__xpg_sigpause                                    /lib/x86_64-linux-gnu/libc.so.6
__xpg_sigpause@@GLIBC_2.2.5                       /lib/x86_64-linux-gnu/libc.so.6
__xpg_sigpause@GLIBC_2.2.5                        /lib/x86_64-linux-gnu/libc.so.6
_dl_starting_up                                   /lib/x86_64-linux-gnu/libc.so.6
_environ                                          /lib/x86_64-linux-gnu/libc.so.6
_environ@@GLIBC_2.2.5                             /lib/x86_64-linux-gnu/libc.so.6
_environ@GLIBC_2.2.5                              /lib/x86_64-linux-gnu/libc.so.6
                                                  /usr/lib/gcc/x86_64-linux-gnu/4.9/../../../x86_64-linux-gnu/libdl.so
_fini                                             /usr/lib/gcc/x86_64-linux-gnu/4.9/../../../x86_64-linux-gnu/crti.o
_flushlbf                                         /lib/x86_64-linux-gnu/libc.so.6
_flushlbf@@GLIBC_2.2.5                            /lib/x86_64-linux-gnu/libc.so.6
_flushlbf@GLIBC_2.2.5                             /lib/x86_64-linux-gnu/libc.so.6
_init                                             /usr/lib/gcc/x86_64-linux-gnu/4.9/../../../x86_64-linux-gnu/crti.o
                                                  /usr/lib/x86_64-linux-gnu/libc_nonshared.a(elf-init.oS)
_longjmp                                          /lib/x86_64-linux-gnu/libc.so.6
_longjmp@@GLIBC_2.2.5                             /lib/x86_64-linux-gnu/libc.so.6
_longjmp@GLIBC_2.2.5                              /lib/x86_64-linux-gnu/libc.so.6
_start                                            /usr/lib/gcc/x86_64-linux-gnu/4.9/../../../x86_64-linux-gnu/crt1.o
accept                                            /lib/x86_64-linux-gnu/libpthread.so.0
accept@@GLIBC_2.2.5                               /lib/x86_64-linux-gnu/libpthread.so.0
                                                  /lib/x86_64-linux-gnu/libc.so.6
accept@GLIBC_2.2.5                                /lib/x86_64-linux-gnu/libpthread.so.0
                                                  /home/xyh/test/POFSwitch+DPDK+V1.0.5.3/dpdk-2.2.0/x86_64-native-linuxapp-gcc/lib/libdpdk.so
access                                            /lib/x86_64-linux-gnu/libc.so.6
access@@GLIBC_2.2.5                               /lib/x86_64-linux-gnu/libc.so.6
access@GLIBC_2.2.5                                /lib/x86_64-linux-gnu/libc.so.6
                                                  /home/xyh/test/POFSwitch+DPDK+V1.0.5.3/dpdk-2.2.0/x86_64-native-linuxapp-gcc/lib/libdpdk.so
acos                                              /usr/lib/gcc/x86_64-linux-gnu/4.9/../../../x86_64-linux-gnu/libm.so
acos@@GLIBC_2.2.5                                 /usr/lib/gcc/x86_64-linux-gnu/4.9/../../../x86_64-linux-gnu/libm.so
acos@GLIBC_2.2.5                                  /usr/lib/gcc/x86_64-linux-gnu/4.9/../../../x86_64-linux-gnu/libm.so
acosf                                             /usr/lib/gcc/x86_64-linux-gnu/4.9/../../../x86_64-linux-gnu/libm.so
acosf@@GLIBC_2.2.5                                /usr/lib/gcc/x86_64-linux-gnu/4.9/../../../x86_64-linux-gnu/libm.so
acosf@GLIBC_2.2.5                                 /usr/lib/gcc/x86_64-linux-gnu/4.9/../../../x86_64-linux-gnu/libm.so
acosh                                             /usr/lib/gcc/x86_64-linux-gnu/4.9/../../../x86_64-linux-gnu/libm.so
acosh@@GLIBC_2.2.5                                /usr/lib/gcc/x86_64-linux-gnu/4.9/../../../x86_64-linux-gnu/libm.so
acosh@GLIBC_2.2.5                                 /usr/lib/gcc/x86_64-linux-gnu/4.9/../../../x86_64-linux-gnu/libm.so
acoshf                                            /usr/lib/gcc/x86_64-linux-gnu/4.9/../../../x86_64-linux-gnu/libm.so
acoshf@@GLIBC_2.2.5                               /usr/lib/gcc/x86_64-linux-gnu/4.9/../../../x86_64-linux-gnu/libm.so
acoshf@GLIBC_2.2.5                                /usr/lib/gcc/x86_64-linux-gnu/4.9/../../../x86_64-linux-gnu/libm.so
acoshl                                            /usr/lib/gcc/x86_64-linux-gnu/4.9/../../../x86_64-linux-gnu/libm.so
acoshl@@GLIBC_2.2.5                               /usr/lib/gcc/x86_64-linux-gnu/4.9/../../../x86_64-linux-gnu/libm.so
acoshl@GLIBC_2.2.5                                /usr/lib/gcc/x86_64-linux-gnu/4.9/../../../x86_64-linux-gnu/libm.so
acosl                                             /usr/lib/gcc/x86_64-linux-gnu/4.9/../../../x86_64-linux-gnu/libm.so
acosl@@GLIBC_2.2.5                                /usr/lib/gcc/x86_64-linux-gnu/4.9/../../../x86_64-linux-gnu/libm.so
acosl@GLIBC_2.2.5                                 /usr/lib/gcc/x86_64-linux-gnu/4.9/../../../x86_64-linux-gnu/libm.so
addmntent                                         /lib/x86_64-linux-gnu/libc.so.6
addmntent@@GLIBC_2.2.5                            /lib/x86_64-linux-gnu/libc.so.6
addmntent@GLIBC_2.2.5                             /lib/x86_64-linux-gnu/libc.so.6
adjtime                                           /lib/x86_64-linux-gnu/libc.so.6
adjtime@@GLIBC_2.2.5                              /lib/x86_64-linux-gnu/libc.so.6
adjtime@GLIBC_2.2.5                               /lib/x86_64-linux-gnu/libc.so.6
adjtimex                                          /lib/x86_64-linux-gnu/libc.so.6
adjtimex@@GLIBC_2.2.5                             /lib/x86_64-linux-gnu/libc.so.6
adjtimex@GLIBC_2.2.5                              /lib/x86_64-linux-gnu/libc.so.6
advance                                           /lib/x86_64-linux-gnu/libc.so.6
advance@@GLIBC_2.2.5                              /lib/x86_64-linux-gnu/libc.so.6
advance@GLIBC_2.2.5                               /lib/x86_64-linux-gnu/libc.so.6
aio_cancel64                                      /usr/lib/gcc/x86_64-linux-gnu/4.9/../../../x86_64-linux-gnu/librt.so
aio_cancel64@@GLIBC_2.2.5                         /usr/lib/gcc/x86_64-linux-gnu/4.9/../../../x86_64-linux-gnu/librt.so
aio_cancel64@GLIBC_2.2.5                          /usr/lib/gcc/x86_64-linux-gnu/4.9/../../../x86_64-linux-gnu/librt.so
aio_error64                                       /usr/lib/gcc/x86_64-linux-gnu/4.9/../../../x86_64-linux-gnu/librt.so
aio_error64@@GLIBC_2.2.5                          /usr/lib/gcc/x86_64-linux-gnu/4.9/../../../x86_64-linux-gnu/librt.so
aio_error64@GLIBC_2.2.5                           /usr/lib/gcc/x86_64-linux-gnu/4.9/../../../x86_64-linux-gnu/librt.so
aio_fsync64                                       /usr/lib/gcc/x86_64-linux-gnu/4.9/../../../x86_64-linux-gnu/librt.so
aio_fsync64@@GLIBC_2.2.5                          /usr/lib/gcc/x86_64-linux-gnu/4.9/../../../x86_64-linux-gnu/librt.so
aio_fsync64@GLIBC_2.2.5                           /usr/lib/gcc/x86_64-linux-gnu/4.9/../../../x86_64-linux-gnu/librt.so
aio_init                                          /usr/lib/gcc/x86_64-linux-gnu/4.9/../../../x86_64-linux-gnu/librt.so
aio_init@@GLIBC_2.2.5                             /usr/lib/gcc/x86_64-linux-gnu/4.9/../../../x86_64-linux-gnu/librt.so
aio_init@GLIBC_2.2.5                              /usr/lib/gcc/x86_64-linux-gnu/4.9/../../../x86_64-linux-gnu/librt.so
aio_read64                                        /usr/lib/gcc/x86_64-linux-gnu/4.9/../../../x86_64-linux-gnu/librt.so
aio_read64@@GLIBC_2.2.5                           /usr/lib/gcc/x86_64-linux-gnu/4.9/../../../x86_64-linux-gnu/librt.so
aio_read64@GLIBC_2.2.5                            /usr/lib/gcc/x86_64-linux-gnu/4.9/../../../x86_64-linux-gnu/librt.so
aio_return64                                      /usr/lib/gcc/x86_64-linux-gnu/4.9/../../../x86_64-linux-gnu/librt.so
aio_return64@@GLIBC_2.2.5                         /usr/lib/gcc/x86_64-linux-gnu/4.9/../../../x86_64-linux-gnu/librt.so
aio_return64@GLIBC_2.2.5                          /usr/lib/gcc/x86_64-linux-gnu/4.9/../../../x86_64-linux-gnu/librt.so
aio_suspend64                                     /usr/lib/gcc/x86_64-linux-gnu/4.9/../../../x86_64-linux-gnu/librt.so
aio_suspend64@@GLIBC_2.2.5                        /usr/lib/gcc/x86_64-linux-gnu/4.9/../../../x86_64-linux-gnu/librt.so
aio_suspend64@GLIBC_2.2.5                         /usr/lib/gcc/x86_64-linux-gnu/4.9/../../../x86_64-linux-gnu/librt.so
aio_write64                                       /usr/lib/gcc/x86_64-linux-gnu/4.9/../../../x86_64-linux-gnu/librt.so
aio_write64@@GLIBC_2.2.5                          /usr/lib/gcc/x86_64-linux-gnu/4.9/../../../x86_64-linux-gnu/librt.so
aio_write64@GLIBC_2.2.5                           /usr/lib/gcc/x86_64-linux-gnu/4.9/../../../x86_64-linux-gnu/librt.so
aligned_alloc                                     /lib/x86_64-linux-gnu/libc.so.6
aligned_alloc@@GLIBC_2.16                         /lib/x86_64-linux-gnu/libc.so.6
aligned_alloc@GLIBC_2.16                          /lib/x86_64-linux-gnu/libc.so.6
all_ports_stopped                                 testpmd.o
                                                  cmdline.o
alphasort64                                       /lib/x86_64-linux-gnu/libc.so.6
alphasort64@@GLIBC_2.2.5                          /lib/x86_64-linux-gnu/libc.so.6
alphasort64@GLIBC_2.2.5                           /lib/x86_64-linux-gnu/libc.so.6
arch_prctl                                        /lib/x86_64-linux-gnu/libc.so.6
arch_prctl@@GLIBC_2.2.5                           /lib/x86_64-linux-gnu/libc.so.6
arch_prctl@GLIBC_2.2.5                            /lib/x86_64-linux-gnu/libc.so.6
argp_error                                        /lib/x86_64-linux-gnu/libc.so.6
argp_error@@GLIBC_2.2.5                           /lib/x86_64-linux-gnu/libc.so.6
argp_error@GLIBC_2.2.5                            /lib/x86_64-linux-gnu/libc.so.6
argp_failure                                      /lib/x86_64-linux-gnu/libc.so.6
argp_failure@@GLIBC_2.2.5                         /lib/x86_64-linux-gnu/libc.so.6
argp_failure@GLIBC_2.2.5                          /lib/x86_64-linux-gnu/libc.so.6
argp_help                                         /lib/x86_64-linux-gnu/libc.so.6
argp_help@@GLIBC_2.2.5                            /lib/x86_64-linux-gnu/libc.so.6
argp_help@GLIBC_2.2.5                             /lib/x86_64-linux-gnu/libc.so.6
argp_parse                                        /lib/x86_64-linux-gnu/libc.so.6
argp_parse@@GLIBC_2.2.5                           /lib/x86_64-linux-gnu/libc.so.6
argp_parse@GLIBC_2.2.5                            /lib/x86_64-linux-gnu/libc.so.6
argp_state_help                                   /lib/x86_64-linux-gnu/libc.so.6
argp_state_help@@GLIBC_2.2.5                      /lib/x86_64-linux-gnu/libc.so.6
argp_state_help@GLIBC_2.2.5                       /lib/x86_64-linux-gnu/libc.so.6
argp_usage                                        /lib/x86_64-linux-gnu/libc.so.6
argp_usage@@GLIBC_2.2.5                           /lib/x86_64-linux-gnu/libc.so.6
argp_usage@GLIBC_2.2.5                            /lib/x86_64-linux-gnu/libc.so.6
argz_add                                          /lib/x86_64-linux-gnu/libc.so.6
argz_add@@GLIBC_2.2.5                             /lib/x86_64-linux-gnu/libc.so.6
argz_add@GLIBC_2.2.5                              /lib/x86_64-linux-gnu/libc.so.6
argz_add_sep                                      /lib/x86_64-linux-gnu/libc.so.6
argz_add_sep@@GLIBC_2.2.5                         /lib/x86_64-linux-gnu/libc.so.6
argz_add_sep@GLIBC_2.2.5                          /lib/x86_64-linux-gnu/libc.so.6
argz_append                                       /lib/x86_64-linux-gnu/libc.so.6
argz_append@@GLIBC_2.2.5                          /lib/x86_64-linux-gnu/libc.so.6
argz_append@GLIBC_2.2.5                           /lib/x86_64-linux-gnu/libc.so.6
argz_count                                        /lib/x86_64-linux-gnu/libc.so.6
argz_count@@GLIBC_2.2.5                           /lib/x86_64-linux-gnu/libc.so.6
argz_count@GLIBC_2.2.5                            /lib/x86_64-linux-gnu/libc.so.6
argz_create                                       /lib/x86_64-linux-gnu/libc.so.6
argz_create@@GLIBC_2.2.5                          /lib/x86_64-linux-gnu/libc.so.6
argz_create@GLIBC_2.2.5                           /lib/x86_64-linux-gnu/libc.so.6
argz_create_sep                                   /lib/x86_64-linux-gnu/libc.so.6
argz_create_sep@@GLIBC_2.2.5                      /lib/x86_64-linux-gnu/libc.so.6
argz_create_sep@GLIBC_2.2.5                       /lib/x86_64-linux-gnu/libc.so.6
argz_extract                                      /lib/x86_64-linux-gnu/libc.so.6
argz_extract@@GLIBC_2.2.5                         /lib/x86_64-linux-gnu/libc.so.6
argz_extract@GLIBC_2.2.5                          /lib/x86_64-linux-gnu/libc.so.6
argz_insert                                       /lib/x86_64-linux-gnu/libc.so.6
argz_insert@@GLIBC_2.2.5                          /lib/x86_64-linux-gnu/libc.so.6
argz_insert@GLIBC_2.2.5                           /lib/x86_64-linux-gnu/libc.so.6
argz_next                                         /lib/x86_64-linux-gnu/libc.so.6
argz_next@@GLIBC_2.2.5                            /lib/x86_64-linux-gnu/libc.so.6
argz_next@GLIBC_2.2.5                             /lib/x86_64-linux-gnu/libc.so.6
argz_replace                                      /lib/x86_64-linux-gnu/libc.so.6
argz_replace@@GLIBC_2.2.5                         /lib/x86_64-linux-gnu/libc.so.6
argz_replace@GLIBC_2.2.5                          /lib/x86_64-linux-gnu/libc.so.6
argz_stringify                                    /lib/x86_64-linux-gnu/libc.so.6
argz_stringify@@GLIBC_2.2.5                       /lib/x86_64-linux-gnu/libc.so.6
argz_stringify@GLIBC_2.2.5                        /lib/x86_64-linux-gnu/libc.so.6
asctime_r                                         /lib/x86_64-linux-gnu/libc.so.6
asctime_r@@GLIBC_2.2.5                            /lib/x86_64-linux-gnu/libc.so.6
asctime_r@GLIBC_2.2.5                             /lib/x86_64-linux-gnu/libc.so.6
asin                                              /usr/lib/gcc/x86_64-linux-gnu/4.9/../../../x86_64-linux-gnu/libm.so
asin@@GLIBC_2.2.5                                 /usr/lib/gcc/x86_64-linux-gnu/4.9/../../../x86_64-linux-gnu/libm.so
asin@GLIBC_2.2.5                                  /usr/lib/gcc/x86_64-linux-gnu/4.9/../../../x86_64-linux-gnu/libm.so
asinf                                             /usr/lib/gcc/x86_64-linux-gnu/4.9/../../../x86_64-linux-gnu/libm.so
asinf@@GLIBC_2.2.5                                /usr/lib/gcc/x86_64-linux-gnu/4.9/../../../x86_64-linux-gnu/libm.so
asinf@GLIBC_2.2.5                                 /usr/lib/gcc/x86_64-linux-gnu/4.9/../../../x86_64-linux-gnu/libm.so
asinh                                             /usr/lib/gcc/x86_64-linux-gnu/4.9/../../../x86_64-linux-gnu/libm.so
asinh@@GLIBC_2.2.5                                /usr/lib/gcc/x86_64-linux-gnu/4.9/../../../x86_64-linux-gnu/libm.so
asinh@GLIBC_2.2.5                                 /usr/lib/gcc/x86_64-linux-gnu/4.9/../../../x86_64-linux-gnu/libm.so
asinhf                                            /usr/lib/gcc/x86_64-linux-gnu/4.9/../../../x86_64-linux-gnu/libm.so
asinhf@@GLIBC_2.2.5                               /usr/lib/gcc/x86_64-linux-gnu/4.9/../../../x86_64-linux-gnu/libm.so
asinhf@GLIBC_2.2.5                                /usr/lib/gcc/x86_64-linux-gnu/4.9/../../../x86_64-linux-gnu/libm.so
asinhl                                            /usr/lib/gcc/x86_64-linux-gnu/4.9/../../../x86_64-linux-gnu/libm.so
asinhl@@GLIBC_2.2.5                               /usr/lib/gcc/x86_64-linux-gnu/4.9/../../../x86_64-linux-gnu/libm.so
asinhl@GLIBC_2.2.5                                /usr/lib/gcc/x86_64-linux-gnu/4.9/../../../x86_64-linux-gnu/libm.so
asinl                                             /usr/lib/gcc/x86_64-linux-gnu/4.9/../../../x86_64-linux-gnu/libm.so
asinl@@GLIBC_2.2.5                                /usr/lib/gcc/x86_64-linux-gnu/4.9/../../../x86_64-linux-gnu/libm.so
asinl@GLIBC_2.2.5                                 /usr/lib/gcc/x86_64-linux-gnu/4.9/../../../x86_64-linux-gnu/libm.so
asprintf                                          /lib/x86_64-linux-gnu/libc.so.6
asprintf@@GLIBC_2.2.5                             /lib/x86_64-linux-gnu/libc.so.6
asprintf@GLIBC_2.2.5                              /lib/x86_64-linux-gnu/libc.so.6
atan2                                             /usr/lib/gcc/x86_64-linux-gnu/4.9/../../../x86_64-linux-gnu/libm.so
atan2@@GLIBC_2.2.5                                /usr/lib/gcc/x86_64-linux-gnu/4.9/../../../x86_64-linux-gnu/libm.so
atan2@GLIBC_2.2.5                                 /usr/lib/gcc/x86_64-linux-gnu/4.9/../../../x86_64-linux-gnu/libm.so
atan2f                                            /usr/lib/gcc/x86_64-linux-gnu/4.9/../../../x86_64-linux-gnu/libm.so
atan2f@@GLIBC_2.2.5                               /usr/lib/gcc/x86_64-linux-gnu/4.9/../../../x86_64-linux-gnu/libm.so
atan2f@GLIBC_2.2.5                                /usr/lib/gcc/x86_64-linux-gnu/4.9/../../../x86_64-linux-gnu/libm.so
atan2l                                            /usr/lib/gcc/x86_64-linux-gnu/4.9/../../../x86_64-linux-gnu/libm.so
atan2l@@GLIBC_2.2.5                               /usr/lib/gcc/x86_64-linux-gnu/4.9/../../../x86_64-linux-gnu/libm.so
atan2l@GLIBC_2.2.5                                /usr/lib/gcc/x86_64-linux-gnu/4.9/../../../x86_64-linux-gnu/libm.so
atanf                                             /usr/lib/gcc/x86_64-linux-gnu/4.9/../../../x86_64-linux-gnu/libm.so
atanf@@GLIBC_2.2.5                                /usr/lib/gcc/x86_64-linux-gnu/4.9/../../../x86_64-linux-gnu/libm.so
atanf@GLIBC_2.2.5                                 /usr/lib/gcc/x86_64-linux-gnu/4.9/../../../x86_64-linux-gnu/libm.so
atanh                                             /usr/lib/gcc/x86_64-linux-gnu/4.9/../../../x86_64-linux-gnu/libm.so
atanh@@GLIBC_2.2.5                                /usr/lib/gcc/x86_64-linux-gnu/4.9/../../../x86_64-linux-gnu/libm.so
atanh@GLIBC_2.2.5                                 /usr/lib/gcc/x86_64-linux-gnu/4.9/../../../x86_64-linux-gnu/libm.so
atanhf                                            /usr/lib/gcc/x86_64-linux-gnu/4.9/../../../x86_64-linux-gnu/libm.so
atanhf@@GLIBC_2.2.5                               /usr/lib/gcc/x86_64-linux-gnu/4.9/../../../x86_64-linux-gnu/libm.so
atanhf@GLIBC_2.2.5                                /usr/lib/gcc/x86_64-linux-gnu/4.9/../../../x86_64-linux-gnu/libm.so
atanhl                                            /usr/lib/gcc/x86_64-linux-gnu/4.9/../../../x86_64-linux-gnu/libm.so
atanhl@@GLIBC_2.2.5                               /usr/lib/gcc/x86_64-linux-gnu/4.9/../../../x86_64-linux-gnu/libm.so
atanhl@GLIBC_2.2.5                                /usr/lib/gcc/x86_64-linux-gnu/4.9/../../../x86_64-linux-gnu/libm.so
atanl                                             /usr/lib/gcc/x86_64-linux-gnu/4.9/../../../x86_64-linux-gnu/libm.so
atanl@@GLIBC_2.2.5                                /usr/lib/gcc/x86_64-linux-gnu/4.9/../../../x86_64-linux-gnu/libm.so
atanl@GLIBC_2.2.5                                 /usr/lib/gcc/x86_64-linux-gnu/4.9/../../../x86_64-linux-gnu/libm.so
attach_port                                       testpmd.o
                                                  cmdline.o
auto_start                                        testpmd.o
                                                  parameters.o
backtrace                                         /lib/x86_64-linux-gnu/libc.so.6
backtrace@@GLIBC_2.2.5                            /lib/x86_64-linux-gnu/libc.so.6
backtrace@GLIBC_2.2.5                             /lib/x86_64-linux-gnu/libc.so.6
                                                  /home/xyh/test/POFSwitch+DPDK+V1.0.5.3/dpdk-2.2.0/x86_64-native-linuxapp-gcc/lib/libdpdk.so
backtrace_symbols                                 /lib/x86_64-linux-gnu/libc.so.6
backtrace_symbols@@GLIBC_2.2.5                    /lib/x86_64-linux-gnu/libc.so.6
backtrace_symbols@GLIBC_2.2.5                     /lib/x86_64-linux-gnu/libc.so.6
                                                  /home/xyh/test/POFSwitch+DPDK+V1.0.5.3/dpdk-2.2.0/x86_64-native-linuxapp-gcc/lib/libdpdk.so
backtrace_symbols_fd                              /lib/x86_64-linux-gnu/libc.so.6
backtrace_symbols_fd@@GLIBC_2.2.5                 /lib/x86_64-linux-gnu/libc.so.6
backtrace_symbols_fd@GLIBC_2.2.5                  /lib/x86_64-linux-gnu/libc.so.6
bcmp                                              /lib/x86_64-linux-gnu/libc.so.6
bcmp@@GLIBC_2.2.5                                 /lib/x86_64-linux-gnu/libc.so.6
bcmp@GLIBC_2.2.5                                  /lib/x86_64-linux-gnu/libc.so.6
bdflush                                           /lib/x86_64-linux-gnu/libc.so.6
bdflush@@GLIBC_2.2.5                              /lib/x86_64-linux-gnu/libc.so.6
bdflush@GLIBC_2.2.5                               /lib/x86_64-linux-gnu/libc.so.6
bind                                              /lib/x86_64-linux-gnu/libc.so.6
bind@@GLIBC_2.2.5                                 /lib/x86_64-linux-gnu/libc.so.6
bind@GLIBC_2.2.5                                  /lib/x86_64-linux-gnu/libc.so.6
                                                  /home/xyh/test/POFSwitch+DPDK+V1.0.5.3/dpdk-2.2.0/x86_64-native-linuxapp-gcc/lib/libdpdk.so
bind_textdomain_codeset                           /lib/x86_64-linux-gnu/libc.so.6
bind_textdomain_codeset@@GLIBC_2.2.5              /lib/x86_64-linux-gnu/libc.so.6
bind_textdomain_codeset@GLIBC_2.2.5               /lib/x86_64-linux-gnu/libc.so.6
bindtextdomain                                    /lib/x86_64-linux-gnu/libc.so.6
bindtextdomain@@GLIBC_2.2.5                       /lib/x86_64-linux-gnu/libc.so.6
bindtextdomain@GLIBC_2.2.5                        /lib/x86_64-linux-gnu/libc.so.6
brk                                               /lib/x86_64-linux-gnu/libc.so.6
brk@@GLIBC_2.2.5                                  /lib/x86_64-linux-gnu/libc.so.6
brk@GLIBC_2.2.5                                   /lib/x86_64-linux-gnu/libc.so.6
bsd_signal                                        /lib/x86_64-linux-gnu/libc.so.6
bsd_signal@@GLIBC_2.2.5                           /lib/x86_64-linux-gnu/libc.so.6
bsd_signal@GLIBC_2.2.5                            /lib/x86_64-linux-gnu/libc.so.6
btowc                                             /lib/x86_64-linux-gnu/libc.so.6
btowc@@GLIBC_2.2.5                                /lib/x86_64-linux-gnu/libc.so.6
btowc@GLIBC_2.2.5                                 /lib/x86_64-linux-gnu/libc.so.6
burst_tx_delay_time                               macfwd-retry.o
                                                  config.o
                                                  cmdline.o
burst_tx_retry_num                                macfwd-retry.o
                                                  config.o
                                                  cmdline.o
bzero                                             /lib/x86_64-linux-gnu/libc.so.6
bzero@@GLIBC_2.2.5                                /lib/x86_64-linux-gnu/libc.so.6
bzero@GLIBC_2.2.5                                 /lib/x86_64-linux-gnu/libc.so.6
c32rtomb                                          /lib/x86_64-linux-gnu/libc.so.6
c32rtomb@@GLIBC_2.16                              /lib/x86_64-linux-gnu/libc.so.6
c32rtomb@GLIBC_2.16                               /lib/x86_64-linux-gnu/libc.so.6
cabs                                              /usr/lib/gcc/x86_64-linux-gnu/4.9/../../../x86_64-linux-gnu/libm.so
cabs@@GLIBC_2.2.5                                 /usr/lib/gcc/x86_64-linux-gnu/4.9/../../../x86_64-linux-gnu/libm.so
cabs@GLIBC_2.2.5                                  /usr/lib/gcc/x86_64-linux-gnu/4.9/../../../x86_64-linux-gnu/libm.so
cabsf                                             /usr/lib/gcc/x86_64-linux-gnu/4.9/../../../x86_64-linux-gnu/libm.so
cabsf@@GLIBC_2.2.5                                /usr/lib/gcc/x86_64-linux-gnu/4.9/../../../x86_64-linux-gnu/libm.so
cabsf@GLIBC_2.2.5                                 /usr/lib/gcc/x86_64-linux-gnu/4.9/../../../x86_64-linux-gnu/libm.so
cabsl                                             /usr/lib/gcc/x86_64-linux-gnu/4.9/../../../x86_64-linux-gnu/libm.so
cabsl@@GLIBC_2.2.5                                /usr/lib/gcc/x86_64-linux-gnu/4.9/../../../x86_64-linux-gnu/libm.so
cabsl@GLIBC_2.2.5                                 /usr/lib/gcc/x86_64-linux-gnu/4.9/../../../x86_64-linux-gnu/libm.so
cacos                                             /usr/lib/gcc/x86_64-linux-gnu/4.9/../../../x86_64-linux-gnu/libm.so
cacos@@GLIBC_2.2.5                                /usr/lib/gcc/x86_64-linux-gnu/4.9/../../../x86_64-linux-gnu/libm.so
cacos@GLIBC_2.2.5                                 /usr/lib/gcc/x86_64-linux-gnu/4.9/../../../x86_64-linux-gnu/libm.so
cacosf                                            /usr/lib/gcc/x86_64-linux-gnu/4.9/../../../x86_64-linux-gnu/libm.so
cacosf@@GLIBC_2.2.5                               /usr/lib/gcc/x86_64-linux-gnu/4.9/../../../x86_64-linux-gnu/libm.so
cacosf@GLIBC_2.2.5                                /usr/lib/gcc/x86_64-linux-gnu/4.9/../../../x86_64-linux-gnu/libm.so
cacosh                                            /usr/lib/gcc/x86_64-linux-gnu/4.9/../../../x86_64-linux-gnu/libm.so
cacosh@@GLIBC_2.2.5                               /usr/lib/gcc/x86_64-linux-gnu/4.9/../../../x86_64-linux-gnu/libm.so
cacosh@GLIBC_2.2.5                                /usr/lib/gcc/x86_64-linux-gnu/4.9/../../../x86_64-linux-gnu/libm.so
cacoshf                                           /usr/lib/gcc/x86_64-linux-gnu/4.9/../../../x86_64-linux-gnu/libm.so
cacoshf@@GLIBC_2.2.5                              /usr/lib/gcc/x86_64-linux-gnu/4.9/../../../x86_64-linux-gnu/libm.so
cacoshf@GLIBC_2.2.5                               /usr/lib/gcc/x86_64-linux-gnu/4.9/../../../x86_64-linux-gnu/libm.so
cacoshl                                           /usr/lib/gcc/x86_64-linux-gnu/4.9/../../../x86_64-linux-gnu/libm.so
cacoshl@@GLIBC_2.2.5                              /usr/lib/gcc/x86_64-linux-gnu/4.9/../../../x86_64-linux-gnu/libm.so
cacoshl@GLIBC_2.2.5                               /usr/lib/gcc/x86_64-linux-gnu/4.9/../../../x86_64-linux-gnu/libm.so
cacosl                                            /usr/lib/gcc/x86_64-linux-gnu/4.9/../../../x86_64-linux-gnu/libm.so
cacosl@@GLIBC_2.2.5                               /usr/lib/gcc/x86_64-linux-gnu/4.9/../../../x86_64-linux-gnu/libm.so
cacosl@GLIBC_2.2.5                                /usr/lib/gcc/x86_64-linux-gnu/4.9/../../../x86_64-linux-gnu/libm.so
calloc                                            /lib/x86_64-linux-gnu/libc.so.6
                                                  mempool_anon.o
calloc@@GLIBC_2.2.5                               /lib/x86_64-linux-gnu/libc.so.6
                                                  /lib/x86_64-linux-gnu/ld-linux-x86-64.so.2
calloc@GLIBC_2.2.5                                /lib/x86_64-linux-gnu/libc.so.6
                                                  /lib/x86_64-linux-gnu/libpthread.so.0
                                                  /usr/lib/gcc/x86_64-linux-gnu/4.9/../../../x86_64-linux-gnu/libdl.so
                                                  /usr/lib/gcc/x86_64-linux-gnu/4.9/libgcc_s.so
                                                  /usr/lib/gcc/x86_64-linux-gnu/4.9/../../../x86_64-linux-gnu/librt.so
                                                  /home/xyh/test/POFSwitch+DPDK+V1.0.5.3/dpdk-2.2.0/x86_64-native-linuxapp-gcc/lib/libdpdk.so
canonicalize_file_name                            /lib/x86_64-linux-gnu/libc.so.6
canonicalize_file_name@@GLIBC_2.2.5               /lib/x86_64-linux-gnu/libc.so.6
canonicalize_file_name@GLIBC_2.2.5                /lib/x86_64-linux-gnu/libc.so.6
carg                                              /usr/lib/gcc/x86_64-linux-gnu/4.9/../../../x86_64-linux-gnu/libm.so
carg@@GLIBC_2.2.5                                 /usr/lib/gcc/x86_64-linux-gnu/4.9/../../../x86_64-linux-gnu/libm.so
carg@GLIBC_2.2.5                                  /usr/lib/gcc/x86_64-linux-gnu/4.9/../../../x86_64-linux-gnu/libm.so
cargf                                             /usr/lib/gcc/x86_64-linux-gnu/4.9/../../../x86_64-linux-gnu/libm.so
cargf@@GLIBC_2.2.5                                /usr/lib/gcc/x86_64-linux-gnu/4.9/../../../x86_64-linux-gnu/libm.so
cargf@GLIBC_2.2.5                                 /usr/lib/gcc/x86_64-linux-gnu/4.9/../../../x86_64-linux-gnu/libm.so
cargl                                             /usr/lib/gcc/x86_64-linux-gnu/4.9/../../../x86_64-linux-gnu/libm.so
cargl@@GLIBC_2.2.5                                /usr/lib/gcc/x86_64-linux-gnu/4.9/../../../x86_64-linux-gnu/libm.so
cargl@GLIBC_2.2.5                                 /usr/lib/gcc/x86_64-linux-gnu/4.9/../../../x86_64-linux-gnu/libm.so
casin                                             /usr/lib/gcc/x86_64-linux-gnu/4.9/../../../x86_64-linux-gnu/libm.so
casin@@GLIBC_2.2.5                                /usr/lib/gcc/x86_64-linux-gnu/4.9/../../../x86_64-linux-gnu/libm.so
casin@GLIBC_2.2.5                                 /usr/lib/gcc/x86_64-linux-gnu/4.9/../../../x86_64-linux-gnu/libm.so
casinf                                            /usr/lib/gcc/x86_64-linux-gnu/4.9/../../../x86_64-linux-gnu/libm.so
casinf@@GLIBC_2.2.5                               /usr/lib/gcc/x86_64-linux-gnu/4.9/../../../x86_64-linux-gnu/libm.so
casinf@GLIBC_2.2.5                                /usr/lib/gcc/x86_64-linux-gnu/4.9/../../../x86_64-linux-gnu/libm.so
casinh                                            /usr/lib/gcc/x86_64-linux-gnu/4.9/../../../x86_64-linux-gnu/libm.so
casinh@@GLIBC_2.2.5                               /usr/lib/gcc/x86_64-linux-gnu/4.9/../../../x86_64-linux-gnu/libm.so
casinh@GLIBC_2.2.5                                /usr/lib/gcc/x86_64-linux-gnu/4.9/../../../x86_64-linux-gnu/libm.so
casinhf                                           /usr/lib/gcc/x86_64-linux-gnu/4.9/../../../x86_64-linux-gnu/libm.so
casinhf@@GLIBC_2.2.5                              /usr/lib/gcc/x86_64-linux-gnu/4.9/../../../x86_64-linux-gnu/libm.so
casinhf@GLIBC_2.2.5                               /usr/lib/gcc/x86_64-linux-gnu/4.9/../../../x86_64-linux-gnu/libm.so
casinhl                                           /usr/lib/gcc/x86_64-linux-gnu/4.9/../../../x86_64-linux-gnu/libm.so
casinhl@@GLIBC_2.2.5                              /usr/lib/gcc/x86_64-linux-gnu/4.9/../../../x86_64-linux-gnu/libm.so
casinhl@GLIBC_2.2.5                               /usr/lib/gcc/x86_64-linux-gnu/4.9/../../../x86_64-linux-gnu/libm.so
casinl                                            /usr/lib/gcc/x86_64-linux-gnu/4.9/../../../x86_64-linux-gnu/libm.so
casinl@@GLIBC_2.2.5                               /usr/lib/gcc/x86_64-linux-gnu/4.9/../../../x86_64-linux-gnu/libm.so
casinl@GLIBC_2.2.5                                /usr/lib/gcc/x86_64-linux-gnu/4.9/../../../x86_64-linux-gnu/libm.so
catan                                             /usr/lib/gcc/x86_64-linux-gnu/4.9/../../../x86_64-linux-gnu/libm.so
catan@@GLIBC_2.2.5                                /usr/lib/gcc/x86_64-linux-gnu/4.9/../../../x86_64-linux-gnu/libm.so
catan@GLIBC_2.2.5                                 /usr/lib/gcc/x86_64-linux-gnu/4.9/../../../x86_64-linux-gnu/libm.so
catanf                                            /usr/lib/gcc/x86_64-linux-gnu/4.9/../../../x86_64-linux-gnu/libm.so
catanf@@GLIBC_2.2.5                               /usr/lib/gcc/x86_64-linux-gnu/4.9/../../../x86_64-linux-gnu/libm.so
catanf@GLIBC_2.2.5                                /usr/lib/gcc/x86_64-linux-gnu/4.9/../../../x86_64-linux-gnu/libm.so
catanh                                            /usr/lib/gcc/x86_64-linux-gnu/4.9/../../../x86_64-linux-gnu/libm.so
catanh@@GLIBC_2.2.5                               /usr/lib/gcc/x86_64-linux-gnu/4.9/../../../x86_64-linux-gnu/libm.so
catanh@GLIBC_2.2.5                                /usr/lib/gcc/x86_64-linux-gnu/4.9/../../../x86_64-linux-gnu/libm.so
catanhf                                           /usr/lib/gcc/x86_64-linux-gnu/4.9/../../../x86_64-linux-gnu/libm.so
catanhf@@GLIBC_2.2.5                              /usr/lib/gcc/x86_64-linux-gnu/4.9/../../../x86_64-linux-gnu/libm.so
catanhf@GLIBC_2.2.5                               /usr/lib/gcc/x86_64-linux-gnu/4.9/../../../x86_64-linux-gnu/libm.so
catanhl                                           /usr/lib/gcc/x86_64-linux-gnu/4.9/../../../x86_64-linux-gnu/libm.so
catanhl@@GLIBC_2.2.5                              /usr/lib/gcc/x86_64-linux-gnu/4.9/../../../x86_64-linux-gnu/libm.so
catanhl@GLIBC_2.2.5                               /usr/lib/gcc/x86_64-linux-gnu/4.9/../../../x86_64-linux-gnu/libm.so
catanl                                            /usr/lib/gcc/x86_64-linux-gnu/4.9/../../../x86_64-linux-gnu/libm.so
catanl@@GLIBC_2.2.5                               /usr/lib/gcc/x86_64-linux-gnu/4.9/../../../x86_64-linux-gnu/libm.so
catanl@GLIBC_2.2.5                                /usr/lib/gcc/x86_64-linux-gnu/4.9/../../../x86_64-linux-gnu/libm.so
cbrt                                              /usr/lib/gcc/x86_64-linux-gnu/4.9/../../../x86_64-linux-gnu/libm.so
cbrt@@GLIBC_2.2.5                                 /usr/lib/gcc/x86_64-linux-gnu/4.9/../../../x86_64-linux-gnu/libm.so
cbrt@GLIBC_2.2.5                                  /usr/lib/gcc/x86_64-linux-gnu/4.9/../../../x86_64-linux-gnu/libm.so
cbrtf                                             /usr/lib/gcc/x86_64-linux-gnu/4.9/../../../x86_64-linux-gnu/libm.so
cbrtf@@GLIBC_2.2.5                                /usr/lib/gcc/x86_64-linux-gnu/4.9/../../../x86_64-linux-gnu/libm.so
cbrtf@GLIBC_2.2.5                                 /usr/lib/gcc/x86_64-linux-gnu/4.9/../../../x86_64-linux-gnu/libm.so
cbrtl                                             /usr/lib/gcc/x86_64-linux-gnu/4.9/../../../x86_64-linux-gnu/libm.so
cbrtl@@GLIBC_2.2.5                                /usr/lib/gcc/x86_64-linux-gnu/4.9/../../../x86_64-linux-gnu/libm.so
cbrtl@GLIBC_2.2.5                                 /usr/lib/gcc/x86_64-linux-gnu/4.9/../../../x86_64-linux-gnu/libm.so
ccos                                              /usr/lib/gcc/x86_64-linux-gnu/4.9/../../../x86_64-linux-gnu/libm.so
ccos@@GLIBC_2.2.5                                 /usr/lib/gcc/x86_64-linux-gnu/4.9/../../../x86_64-linux-gnu/libm.so
ccos@GLIBC_2.2.5                                  /usr/lib/gcc/x86_64-linux-gnu/4.9/../../../x86_64-linux-gnu/libm.so
ccosf                                             /usr/lib/gcc/x86_64-linux-gnu/4.9/../../../x86_64-linux-gnu/libm.so
ccosf@@GLIBC_2.2.5                                /usr/lib/gcc/x86_64-linux-gnu/4.9/../../../x86_64-linux-gnu/libm.so
ccosf@GLIBC_2.2.5                                 /usr/lib/gcc/x86_64-linux-gnu/4.9/../../../x86_64-linux-gnu/libm.so
ccosh                                             /usr/lib/gcc/x86_64-linux-gnu/4.9/../../../x86_64-linux-gnu/libm.so
ccosh@@GLIBC_2.2.5                                /usr/lib/gcc/x86_64-linux-gnu/4.9/../../../x86_64-linux-gnu/libm.so
ccosh@GLIBC_2.2.5                                 /usr/lib/gcc/x86_64-linux-gnu/4.9/../../../x86_64-linux-gnu/libm.so
ccoshf                                            /usr/lib/gcc/x86_64-linux-gnu/4.9/../../../x86_64-linux-gnu/libm.so
ccoshf@@GLIBC_2.2.5                               /usr/lib/gcc/x86_64-linux-gnu/4.9/../../../x86_64-linux-gnu/libm.so
ccoshf@GLIBC_2.2.5                                /usr/lib/gcc/x86_64-linux-gnu/4.9/../../../x86_64-linux-gnu/libm.so
ccoshl                                            /usr/lib/gcc/x86_64-linux-gnu/4.9/../../../x86_64-linux-gnu/libm.so
ccoshl@@GLIBC_2.2.5                               /usr/lib/gcc/x86_64-linux-gnu/4.9/../../../x86_64-linux-gnu/libm.so
ccoshl@GLIBC_2.2.5                                /usr/lib/gcc/x86_64-linux-gnu/4.9/../../../x86_64-linux-gnu/libm.so
ccosl                                             /usr/lib/gcc/x86_64-linux-gnu/4.9/../../../x86_64-linux-gnu/libm.so
ccosl@@GLIBC_2.2.5                                /usr/lib/gcc/x86_64-linux-gnu/4.9/../../../x86_64-linux-gnu/libm.so
ccosl@GLIBC_2.2.5                                 /usr/lib/gcc/x86_64-linux-gnu/4.9/../../../x86_64-linux-gnu/libm.so
ceil                                              /usr/lib/gcc/x86_64-linux-gnu/4.9/../../../x86_64-linux-gnu/libm.so
                                                  /home/xyh/test/POFSwitch+DPDK+V1.0.5.3/dpdk-2.2.0/x86_64-native-linuxapp-gcc/lib/libdpdk.so
ceil@@GLIBC_2.2.5                                 /usr/lib/gcc/x86_64-linux-gnu/4.9/../../../x86_64-linux-gnu/libm.so
ceil@GLIBC_2.2.5                                  /usr/lib/gcc/x86_64-linux-gnu/4.9/../../../x86_64-linux-gnu/libm.so
ceilf                                             /usr/lib/gcc/x86_64-linux-gnu/4.9/../../../x86_64-linux-gnu/libm.so
ceilf@@GLIBC_2.2.5                                /usr/lib/gcc/x86_64-linux-gnu/4.9/../../../x86_64-linux-gnu/libm.so
ceilf@GLIBC_2.2.5                                 /usr/lib/gcc/x86_64-linux-gnu/4.9/../../../x86_64-linux-gnu/libm.so
ceill                                             /usr/lib/gcc/x86_64-linux-gnu/4.9/../../../x86_64-linux-gnu/libm.so
ceill@@GLIBC_2.2.5                                /usr/lib/gcc/x86_64-linux-gnu/4.9/../../../x86_64-linux-gnu/libm.so
ceill@GLIBC_2.2.5                                 /usr/lib/gcc/x86_64-linux-gnu/4.9/../../../x86_64-linux-gnu/libm.so
cexp                                              /usr/lib/gcc/x86_64-linux-gnu/4.9/../../../x86_64-linux-gnu/libm.so
cexp@@GLIBC_2.2.5                                 /usr/lib/gcc/x86_64-linux-gnu/4.9/../../../x86_64-linux-gnu/libm.so
cexp@GLIBC_2.2.5                                  /usr/lib/gcc/x86_64-linux-gnu/4.9/../../../x86_64-linux-gnu/libm.so
cexpf                                             /usr/lib/gcc/x86_64-linux-gnu/4.9/../../../x86_64-linux-gnu/libm.so
cexpf@@GLIBC_2.2.5                                /usr/lib/gcc/x86_64-linux-gnu/4.9/../../../x86_64-linux-gnu/libm.so
cexpf@GLIBC_2.2.5                                 /usr/lib/gcc/x86_64-linux-gnu/4.9/../../../x86_64-linux-gnu/libm.so
cexpl                                             /usr/lib/gcc/x86_64-linux-gnu/4.9/../../../x86_64-linux-gnu/libm.so
cexpl@@GLIBC_2.2.5                                /usr/lib/gcc/x86_64-linux-gnu/4.9/../../../x86_64-linux-gnu/libm.so
cexpl@GLIBC_2.2.5                                 /usr/lib/gcc/x86_64-linux-gnu/4.9/../../../x86_64-linux-gnu/libm.so
cfree                                             /lib/x86_64-linux-gnu/libc.so.6
cfree@@GLIBC_2.2.5                                /lib/x86_64-linux-gnu/libc.so.6
cfree@GLIBC_2.2.5                                 /lib/x86_64-linux-gnu/libc.so.6
chdir                                             /lib/x86_64-linux-gnu/libc.so.6
chdir@@GLIBC_2.2.5                                /lib/x86_64-linux-gnu/libc.so.6
chdir@GLIBC_2.2.5                                 /lib/x86_64-linux-gnu/libc.so.6
chmod                                             /lib/x86_64-linux-gnu/libc.so.6
chmod@@GLIBC_2.2.5                                /lib/x86_64-linux-gnu/libc.so.6
chmod@GLIBC_2.2.5                                 /lib/x86_64-linux-gnu/libc.so.6
chown                                             /lib/x86_64-linux-gnu/libc.so.6
chown@@GLIBC_2.2.5                                /lib/x86_64-linux-gnu/libc.so.6
chown@GLIBC_2.2.5                                 /lib/x86_64-linux-gnu/libc.so.6
cimag                                             /usr/lib/gcc/x86_64-linux-gnu/4.9/../../../x86_64-linux-gnu/libm.so
cimag@@GLIBC_2.2.5                                /usr/lib/gcc/x86_64-linux-gnu/4.9/../../../x86_64-linux-gnu/libm.so
cimag@GLIBC_2.2.5                                 /usr/lib/gcc/x86_64-linux-gnu/4.9/../../../x86_64-linux-gnu/libm.so
cimagf                                            /usr/lib/gcc/x86_64-linux-gnu/4.9/../../../x86_64-linux-gnu/libm.so
cimagf@@GLIBC_2.2.5                               /usr/lib/gcc/x86_64-linux-gnu/4.9/../../../x86_64-linux-gnu/libm.so
cimagf@GLIBC_2.2.5                                /usr/lib/gcc/x86_64-linux-gnu/4.9/../../../x86_64-linux-gnu/libm.so
cimagl                                            /usr/lib/gcc/x86_64-linux-gnu/4.9/../../../x86_64-linux-gnu/libm.so
cimagl@@GLIBC_2.2.5                               /usr/lib/gcc/x86_64-linux-gnu/4.9/../../../x86_64-linux-gnu/libm.so
cimagl@GLIBC_2.2.5                                /usr/lib/gcc/x86_64-linux-gnu/4.9/../../../x86_64-linux-gnu/libm.so
clear_port_slave_flag                             testpmd.o
                                                  cmdline.o
clearenv                                          /lib/x86_64-linux-gnu/libc.so.6
clearenv@@GLIBC_2.2.5                             /lib/x86_64-linux-gnu/libc.so.6
clearenv@GLIBC_2.2.5                              /lib/x86_64-linux-gnu/libc.so.6
clog                                              /usr/lib/gcc/x86_64-linux-gnu/4.9/../../../x86_64-linux-gnu/libm.so
clog10                                            /usr/lib/gcc/x86_64-linux-gnu/4.9/../../../x86_64-linux-gnu/libm.so
clog10@@GLIBC_2.2.5                               /usr/lib/gcc/x86_64-linux-gnu/4.9/../../../x86_64-linux-gnu/libm.so
clog10@GLIBC_2.2.5                                /usr/lib/gcc/x86_64-linux-gnu/4.9/../../../x86_64-linux-gnu/libm.so
clog10f                                           /usr/lib/gcc/x86_64-linux-gnu/4.9/../../../x86_64-linux-gnu/libm.so
clog10f@@GLIBC_2.2.5                              /usr/lib/gcc/x86_64-linux-gnu/4.9/../../../x86_64-linux-gnu/libm.so
clog10f@GLIBC_2.2.5                               /usr/lib/gcc/x86_64-linux-gnu/4.9/../../../x86_64-linux-gnu/libm.so
clog10l                                           /usr/lib/gcc/x86_64-linux-gnu/4.9/../../../x86_64-linux-gnu/libm.so
clog10l@@GLIBC_2.2.5                              /usr/lib/gcc/x86_64-linux-gnu/4.9/../../../x86_64-linux-gnu/libm.so
clog10l@GLIBC_2.2.5                               /usr/lib/gcc/x86_64-linux-gnu/4.9/../../../x86_64-linux-gnu/libm.so
clog@@GLIBC_2.2.5                                 /usr/lib/gcc/x86_64-linux-gnu/4.9/../../../x86_64-linux-gnu/libm.so
clog@GLIBC_2.2.5                                  /usr/lib/gcc/x86_64-linux-gnu/4.9/../../../x86_64-linux-gnu/libm.so
clogf                                             /usr/lib/gcc/x86_64-linux-gnu/4.9/../../../x86_64-linux-gnu/libm.so
clogf@@GLIBC_2.2.5                                /usr/lib/gcc/x86_64-linux-gnu/4.9/../../../x86_64-linux-gnu/libm.so
clogf@GLIBC_2.2.5                                 /usr/lib/gcc/x86_64-linux-gnu/4.9/../../../x86_64-linux-gnu/libm.so
clogl                                             /usr/lib/gcc/x86_64-linux-gnu/4.9/../../../x86_64-linux-gnu/libm.so
clogl@@GLIBC_2.2.5                                /usr/lib/gcc/x86_64-linux-gnu/4.9/../../../x86_64-linux-gnu/libm.so
clogl@GLIBC_2.2.5                                 /usr/lib/gcc/x86_64-linux-gnu/4.9/../../../x86_64-linux-gnu/libm.so
clone                                             /lib/x86_64-linux-gnu/libc.so.6
clone@@GLIBC_2.2.5                                /lib/x86_64-linux-gnu/libc.so.6
clone@GLIBC_2.2.5                                 /lib/x86_64-linux-gnu/libc.so.6
close                                             /lib/x86_64-linux-gnu/libpthread.so.0
                                                  mempool_anon.o
close@@GLIBC_2.2.5                                /lib/x86_64-linux-gnu/libpthread.so.0
                                                  /lib/x86_64-linux-gnu/libc.so.6
close@GLIBC_2.2.5                                 /lib/x86_64-linux-gnu/libpthread.so.0
                                                  /home/xyh/test/POFSwitch+DPDK+V1.0.5.3/dpdk-2.2.0/x86_64-native-linuxapp-gcc/lib/libdpdk.so
close_port                                        testpmd.o
                                                  cmdline.o
closedir                                          /lib/x86_64-linux-gnu/libc.so.6
closedir@@GLIBC_2.2.5                             /lib/x86_64-linux-gnu/libc.so.6
closedir@GLIBC_2.2.5                              /lib/x86_64-linux-gnu/libc.so.6
                                                  /home/xyh/test/POFSwitch+DPDK+V1.0.5.3/dpdk-2.2.0/x86_64-native-linuxapp-gcc/lib/libdpdk.so
cmd_2tuple_filter                                 cmdline.o
cmd_2tuple_filter_dst_port                        cmdline.o
cmd_2tuple_filter_dst_port_value                  cmdline.o
cmd_2tuple_filter_filter                          cmdline.o
cmd_2tuple_filter_mask                            cmdline.o
cmd_2tuple_filter_mask_value                      cmdline.o
cmd_2tuple_filter_ops                             cmdline.o
cmd_2tuple_filter_port_id                         cmdline.o
cmd_2tuple_filter_priority                        cmdline.o
cmd_2tuple_filter_priority_value                  cmdline.o
cmd_2tuple_filter_protocol                        cmdline.o
cmd_2tuple_filter_protocol_value                  cmdline.o
cmd_2tuple_filter_queue                           cmdline.o
cmd_2tuple_filter_queue_id                        cmdline.o
cmd_2tuple_filter_tcp_flags                       cmdline.o
cmd_2tuple_filter_tcp_flags_value                 cmdline.o
cmd_5tuple_filter                                 cmdline.o
cmd_5tuple_filter_dst_ip                          cmdline.o
cmd_5tuple_filter_dst_ip_value                    cmdline.o
cmd_5tuple_filter_dst_port                        cmdline.o
cmd_5tuple_filter_dst_port_value                  cmdline.o
cmd_5tuple_filter_filter                          cmdline.o
cmd_5tuple_filter_mask                            cmdline.o
cmd_5tuple_filter_mask_value                      cmdline.o
cmd_5tuple_filter_ops                             cmdline.o
cmd_5tuple_filter_port_id                         cmdline.o
cmd_5tuple_filter_priority                        cmdline.o
cmd_5tuple_filter_priority_value                  cmdline.o
cmd_5tuple_filter_protocol                        cmdline.o
cmd_5tuple_filter_protocol_value                  cmdline.o
cmd_5tuple_filter_queue                           cmdline.o
cmd_5tuple_filter_queue_id                        cmdline.o
cmd_5tuple_filter_src_ip                          cmdline.o
cmd_5tuple_filter_src_ip_value                    cmdline.o
cmd_5tuple_filter_src_port                        cmdline.o
cmd_5tuple_filter_src_port_value                  cmdline.o
cmd_5tuple_filter_tcp_flags                       cmdline.o
cmd_5tuple_filter_tcp_flags_value                 cmdline.o
cmd_add_bonding_slave                             cmdline.o
cmd_add_del_ip_flow_director                      cmdline.o
cmd_add_del_l2_flow_director                      cmdline.o
cmd_add_del_mac_vlan_flow_director                cmdline.o
cmd_add_del_sctp_flow_director                    cmdline.o
cmd_add_del_tunnel_flow_director                  cmdline.o
cmd_add_del_udp_flow_director                     cmdline.o
cmd_addbonding_slave_add                          cmdline.o
cmd_addbonding_slave_bonding                      cmdline.o
cmd_addbonding_slave_port                         cmdline.o
cmd_addbonding_slave_slave                        cmdline.o
cmd_addbonding_slave_slaveid                      cmdline.o
cmd_config_burst                                  cmdline.o
cmd_config_burst_all                              cmdline.o
cmd_config_burst_keyword                          cmdline.o
cmd_config_burst_name                             cmdline.o
cmd_config_burst_port                             cmdline.o
cmd_config_burst_value                            cmdline.o
cmd_config_dcb                                    cmdline.o
cmd_config_dcb_config                             cmdline.o
cmd_config_dcb_dcb                                cmdline.o
cmd_config_dcb_num_tcs                            cmdline.o
cmd_config_dcb_pfc                                cmdline.o
cmd_config_dcb_pfc_en                             cmdline.o
cmd_config_dcb_port                               cmdline.o
cmd_config_dcb_port_id                            cmdline.o
cmd_config_dcb_vt                                 cmdline.o
cmd_config_dcb_vt_en                              cmdline.o
cmd_config_max_pkt_len                            cmdline.o
cmd_config_max_pkt_len_all                        cmdline.o
cmd_config_max_pkt_len_keyword                    cmdline.o
cmd_config_max_pkt_len_name                       cmdline.o
cmd_config_max_pkt_len_port                       cmdline.o
cmd_config_max_pkt_len_value                      cmdline.o
cmd_config_mtu                                    cmdline.o
cmd_config_mtu_keyword                            cmdline.o
cmd_config_mtu_mtu                                cmdline.o
cmd_config_mtu_port                               cmdline.o
cmd_config_mtu_port_id                            cmdline.o
cmd_config_mtu_value                              cmdline.o
cmd_config_rss                                    cmdline.o
cmd_config_rss_all                                cmdline.o
cmd_config_rss_hash_key                           cmdline.o
cmd_config_rss_hash_key_config                    cmdline.o
cmd_config_rss_hash_key_port                      cmdline.o
cmd_config_rss_hash_key_port_id                   cmdline.o
cmd_config_rss_hash_key_rss_hash_key              cmdline.o
cmd_config_rss_hash_key_rss_type                  cmdline.o
cmd_config_rss_hash_key_value                     cmdline.o
cmd_config_rss_keyword                            cmdline.o
cmd_config_rss_name                               cmdline.o
cmd_config_rss_port                               cmdline.o
cmd_config_rss_reta                               cmdline.o
cmd_config_rss_reta_keyword                       cmdline.o
cmd_config_rss_reta_list_name                     cmdline.o
cmd_config_rss_reta_list_of_items                 cmdline.o
cmd_config_rss_reta_name                          cmdline.o
cmd_config_rss_reta_port                          cmdline.o
cmd_config_rss_reta_port_id                       cmdline.o
cmd_config_rss_value                              cmdline.o
cmd_config_rx_mode_flag                           cmdline.o
cmd_config_rx_mode_flag_all                       cmdline.o
cmd_config_rx_mode_flag_keyword                   cmdline.o
cmd_config_rx_mode_flag_name                      cmdline.o
cmd_config_rx_mode_flag_port                      cmdline.o
cmd_config_rx_mode_flag_value                     cmdline.o
cmd_config_rx_tx                                  cmdline.o
cmd_config_rx_tx_all                              cmdline.o
cmd_config_rx_tx_keyword                          cmdline.o
cmd_config_rx_tx_name                             cmdline.o
cmd_config_rx_tx_port                             cmdline.o
cmd_config_rx_tx_value                            cmdline.o
cmd_config_rxtx_queue                             cmdline.o
cmd_config_rxtx_queue_opname                      cmdline.o
cmd_config_rxtx_queue_port                        cmdline.o
cmd_config_rxtx_queue_portid                      cmdline.o
cmd_config_rxtx_queue_qid                         cmdline.o
cmd_config_rxtx_queue_rxtxq                       cmdline.o
cmd_config_speed_all                              cmdline.o
cmd_config_speed_all_all                          cmdline.o
cmd_config_speed_all_item1                        cmdline.o
cmd_config_speed_all_item2                        cmdline.o
cmd_config_speed_all_keyword                      cmdline.o
cmd_config_speed_all_port                         cmdline.o
cmd_config_speed_all_value1                       cmdline.o
cmd_config_speed_all_value2                       cmdline.o
cmd_config_speed_specific                         cmdline.o
cmd_config_speed_specific_id                      cmdline.o
cmd_config_speed_specific_item1                   cmdline.o
cmd_config_speed_specific_item2                   cmdline.o
cmd_config_speed_specific_keyword                 cmdline.o
cmd_config_speed_specific_port                    cmdline.o
cmd_config_speed_specific_value1                  cmdline.o
cmd_config_speed_specific_value2                  cmdline.o
cmd_config_thresh                                 cmdline.o
cmd_config_thresh_all                             cmdline.o
cmd_config_thresh_keyword                         cmdline.o
cmd_config_thresh_name                            cmdline.o
cmd_config_thresh_port                            cmdline.o
cmd_config_thresh_value                           cmdline.o
cmd_config_threshold                              cmdline.o
cmd_config_threshold_all                          cmdline.o
cmd_config_threshold_keyword                      cmdline.o
cmd_config_threshold_name                         cmdline.o
cmd_config_threshold_port                         cmdline.o
cmd_config_threshold_value                        cmdline.o
cmd_create_bonded_device                          cmdline.o
cmd_createbonded_device_bonded                    cmdline.o
cmd_createbonded_device_create                    cmdline.o
cmd_createbonded_device_device                    cmdline.o
cmd_createbonded_device_mode                      cmdline.o
cmd_createbonded_device_socket                    cmdline.o
cmd_csum_csum                                     cmdline.o
cmd_csum_hwsw                                     cmdline.o
cmd_csum_mode                                     cmdline.o
cmd_csum_mode_show                                cmdline.o
cmd_csum_portid                                   cmdline.o
cmd_csum_proto                                    cmdline.o
cmd_csum_set                                      cmdline.o
cmd_csum_show                                     cmdline.o
cmd_csum_tunnel                                   cmdline.o
cmd_csum_tunnel_csum                              cmdline.o
cmd_csum_tunnel_onoff                             cmdline.o
cmd_csum_tunnel_parse                             cmdline.o
cmd_csum_tunnel_portid                            cmdline.o
cmd_dump                                          cmdline.o
cmd_dump_dump                                     cmdline.o
cmd_dump_one                                      cmdline.o
cmd_dump_one_dump                                 cmdline.o
cmd_dump_one_name                                 cmdline.o
cmd_ethertype_filter                              cmdline.o
cmd_ethertype_filter_drop                         cmdline.o
cmd_ethertype_filter_ethertype                    cmdline.o
cmd_ethertype_filter_ethertype_value              cmdline.o
cmd_ethertype_filter_filter                       cmdline.o
cmd_ethertype_filter_mac                          cmdline.o
cmd_ethertype_filter_mac_addr                     cmdline.o
cmd_ethertype_filter_ops                          cmdline.o
cmd_ethertype_filter_port_id                      cmdline.o
cmd_ethertype_filter_queue                        cmdline.o
cmd_ethertype_filter_queue_id                     cmdline.o
cmd_flex_filter                                   cmdline.o
cmd_flex_filter_bytes                             cmdline.o
cmd_flex_filter_bytes_value                       cmdline.o
cmd_flex_filter_filter                            cmdline.o
cmd_flex_filter_len                               cmdline.o
cmd_flex_filter_len_value                         cmdline.o
cmd_flex_filter_mask                              cmdline.o
cmd_flex_filter_mask_value                        cmdline.o
cmd_flex_filter_ops                               cmdline.o
cmd_flex_filter_port_id                           cmdline.o
cmd_flex_filter_priority                          cmdline.o
cmd_flex_filter_priority_value                    cmdline.o
cmd_flex_filter_queue                             cmdline.o
cmd_flex_filter_queue_id                          cmdline.o
cmd_flow_director_drop                            cmdline.o
cmd_flow_director_dst                             cmdline.o
cmd_flow_director_ether                           cmdline.o
cmd_flow_director_ether_type                      cmdline.o
cmd_flow_director_fd_id                           cmdline.o
cmd_flow_director_fd_id_value                     cmdline.o
cmd_flow_director_filter                          cmdline.o
cmd_flow_director_flexbytes                       cmdline.o
cmd_flow_director_flexbytes_value                 cmdline.o
cmd_flow_director_flexmask                        cmdline.o
cmd_flow_director_flexmask_flow                   cmdline.o
cmd_flow_director_flexmask_flow_type              cmdline.o
cmd_flow_director_flexmask_mask                   cmdline.o
cmd_flow_director_flexmask_port_id                cmdline.o
cmd_flow_director_flexpayload                     cmdline.o
cmd_flow_director_flexpayload_payload_cfg         cmdline.o
cmd_flow_director_flexpayload_payload_layer       cmdline.o
cmd_flow_director_flexpayload_port_id             cmdline.o
cmd_flow_director_flow                            cmdline.o
cmd_flow_director_flow_type                       cmdline.o
cmd_flow_director_ip_dst                          cmdline.o
cmd_flow_director_ip_src                          cmdline.o
cmd_flow_director_mac                             cmdline.o
cmd_flow_director_mac_addr                        cmdline.o
cmd_flow_director_mask                            cmdline.o
cmd_flow_director_mask_dst                        cmdline.o
cmd_flow_director_mask_ipv4_dst                   cmdline.o
cmd_flow_director_mask_ipv4_src                   cmdline.o
cmd_flow_director_mask_ipv6_dst                   cmdline.o
cmd_flow_director_mask_ipv6_src                   cmdline.o
cmd_flow_director_mask_mac                        cmdline.o
cmd_flow_director_mask_mac_value                  cmdline.o
cmd_flow_director_mask_mode                       cmdline.o
cmd_flow_director_mask_mode_ip                    cmdline.o
cmd_flow_director_mask_mode_mac_vlan              cmdline.o
cmd_flow_director_mask_mode_tunnel                cmdline.o
cmd_flow_director_mask_port_dst                   cmdline.o
cmd_flow_director_mask_port_id                    cmdline.o
cmd_flow_director_mask_port_src                   cmdline.o
cmd_flow_director_mask_src                        cmdline.o
cmd_flow_director_mask_tunnel_id                  cmdline.o
cmd_flow_director_mask_tunnel_id_value            cmdline.o
cmd_flow_director_mask_tunnel_type                cmdline.o
cmd_flow_director_mask_tunnel_type_value          cmdline.o
cmd_flow_director_mask_vlan                       cmdline.o
cmd_flow_director_mask_vlan_value                 cmdline.o
cmd_flow_director_mode                            cmdline.o
cmd_flow_director_mode_ip                         cmdline.o
cmd_flow_director_mode_mac_vlan                   cmdline.o
cmd_flow_director_mode_tunnel                     cmdline.o
cmd_flow_director_ops                             cmdline.o
cmd_flow_director_pf_vf                           cmdline.o
cmd_flow_director_port_dst                        cmdline.o
cmd_flow_director_port_id                         cmdline.o
cmd_flow_director_port_src                        cmdline.o
cmd_flow_director_queue                           cmdline.o
cmd_flow_director_queue_id                        cmdline.o
cmd_flow_director_src                             cmdline.o
cmd_flow_director_tunnel                          cmdline.o
cmd_flow_director_tunnel_id                       cmdline.o
cmd_flow_director_tunnel_id_value                 cmdline.o
cmd_flow_director_tunnel_type                     cmdline.o
cmd_flow_director_verify_tag                      cmdline.o
cmd_flow_director_verify_tag_value                cmdline.o
cmd_flow_director_vlan                            cmdline.o
cmd_flow_director_vlan_value                      cmdline.o
cmd_flush_flow_director                           cmdline.o
cmd_flush_flow_director_flush                     cmdline.o
cmd_flush_flow_director_port_id                   cmdline.o
cmd_get_hash_global_config                        cmdline.o
cmd_get_hash_global_config_all                    cmdline.o
cmd_get_hash_global_config_port_id                cmdline.o
cmd_get_sym_hash_ena_per_port                     cmdline.o
cmd_get_sym_hash_ena_per_port_all                 cmdline.o
cmd_get_sym_hash_ena_per_port_port_id             cmdline.o
cmd_global_config                                 cmdline.o
cmd_global_config_cmd                             cmdline.o
cmd_global_config_gre_key_len                     cmdline.o
cmd_global_config_port_id                         cmdline.o
cmd_global_config_type                            cmdline.o
cmd_help_brief                                    cmdline.o
cmd_help_brief_help                               cmdline.o
cmd_help_long                                     cmdline.o
cmd_help_long_help                                cmdline.o
cmd_help_long_section                             cmdline.o
cmd_lfc_set_autoneg                               cmdline.o
cmd_lfc_set_autoneg_str                           cmdline.o
cmd_lfc_set_flow_ctrl                             cmdline.o
cmd_lfc_set_high_water                            cmdline.o
cmd_lfc_set_high_water_str                        cmdline.o
cmd_lfc_set_low_water                             cmdline.o
cmd_lfc_set_low_water_str                         cmdline.o
cmd_lfc_set_mac_ctrl_frame_fwd                    cmdline.o
cmd_lfc_set_mac_ctrl_frame_fwd_mode               cmdline.o
cmd_lfc_set_pause_time                            cmdline.o
cmd_lfc_set_pause_time_str                        cmdline.o
cmd_lfc_set_portid                                cmdline.o
cmd_lfc_set_rx                                    cmdline.o
cmd_lfc_set_rx_mode                               cmdline.o
cmd_lfc_set_send_xon                              cmdline.o
cmd_lfc_set_send_xon_str                          cmdline.o
cmd_lfc_set_set                                   cmdline.o
cmd_lfc_set_tx                                    cmdline.o
cmd_lfc_set_tx_mode                               cmdline.o
cmd_link_flow_control_set                         cmdline.o
cmd_link_flow_control_set_autoneg                 cmdline.o
cmd_link_flow_control_set_hw                      cmdline.o
cmd_link_flow_control_set_lw                      cmdline.o
cmd_link_flow_control_set_macfwd                  cmdline.o
cmd_link_flow_control_set_pt                      cmdline.o
cmd_link_flow_control_set_rx                      cmdline.o
cmd_link_flow_control_set_tx                      cmdline.o
cmd_link_flow_control_set_xon                     cmdline.o
cmd_mac_addr                                      cmdline.o
cmd_mac_addr_addr                                 cmdline.o
cmd_mac_addr_cmd                                  cmdline.o
cmd_mac_addr_portnum                              cmdline.o
cmd_mac_addr_what                                 cmdline.o
cmd_mcast_addr                                    cmdline.o
cmd_mcast_addr_addr                               cmdline.o
cmd_mcast_addr_cmd                                cmdline.o
cmd_mcast_addr_portnum                            cmdline.o
cmd_mcast_addr_what                               cmdline.o
cmd_mirror_link_dstpool                           cmdline.o
cmd_mirror_link_mirror                            cmdline.o
cmd_mirror_link_on                                cmdline.o
cmd_mirror_link_poolid                            cmdline.o
cmd_mirror_link_port                              cmdline.o
cmd_mirror_link_portid                            cmdline.o
cmd_mirror_link_ruleid                            cmdline.o
cmd_mirror_link_set                               cmdline.o
cmd_mirror_link_what                              cmdline.o
cmd_mirror_mask_dstpool                           cmdline.o
cmd_mirror_mask_mirror                            cmdline.o
cmd_mirror_mask_on                                cmdline.o
cmd_mirror_mask_poolid                            cmdline.o
cmd_mirror_mask_port                              cmdline.o
cmd_mirror_mask_portid                            cmdline.o
cmd_mirror_mask_ruleid                            cmdline.o
cmd_mirror_mask_set                               cmdline.o
cmd_mirror_mask_value                             cmdline.o
cmd_mirror_mask_what                              cmdline.o
cmd_operate_attach_port                           cmdline.o
cmd_operate_attach_port_identifier                cmdline.o
cmd_operate_attach_port_keyword                   cmdline.o
cmd_operate_attach_port_port                      cmdline.o
cmd_operate_detach_port                           cmdline.o
cmd_operate_detach_port_keyword                   cmdline.o
cmd_operate_detach_port_port                      cmdline.o
cmd_operate_detach_port_port_id                   cmdline.o
cmd_operate_port                                  cmdline.o
cmd_operate_port_all_all                          cmdline.o
cmd_operate_port_all_cmd                          cmdline.o
cmd_operate_port_all_port                         cmdline.o
cmd_operate_specific_port                         cmdline.o
cmd_operate_specific_port_cmd                     cmdline.o
cmd_operate_specific_port_id                      cmdline.o
cmd_operate_specific_port_port                    cmdline.o
cmd_pfc_set_flow_ctrl                             cmdline.o
cmd_pfc_set_high_water                            cmdline.o
cmd_pfc_set_low_water                             cmdline.o
cmd_pfc_set_pause_time                            cmdline.o
cmd_pfc_set_portid                                cmdline.o
cmd_pfc_set_priority                              cmdline.o
cmd_pfc_set_rx                                    cmdline.o
cmd_pfc_set_rx_mode                               cmdline.o
cmd_pfc_set_set                                   cmdline.o
cmd_pfc_set_tx                                    cmdline.o
cmd_pfc_set_tx_mode                               cmdline.o
cmd_priority_flow_control_set                     cmdline.o
cmd_queue_rate_limit                              cmdline.o
cmd_queue_rate_limit_port                         cmdline.o
cmd_queue_rate_limit_portnum                      cmdline.o
cmd_queue_rate_limit_queue                        cmdline.o
cmd_queue_rate_limit_queuenum                     cmdline.o
cmd_queue_rate_limit_rate                         cmdline.o
cmd_queue_rate_limit_ratenum                      cmdline.o
cmd_queue_rate_limit_set                          cmdline.o
cmd_quit                                          cmdline.o
cmd_quit_quit                                     cmdline.o
cmd_read_reg                                      cmdline.o
cmd_read_reg_bit                                  cmdline.o
cmd_read_reg_bit_bit_pos                          cmdline.o
cmd_read_reg_bit_field                            cmdline.o
cmd_read_reg_bit_field_bit1_pos                   cmdline.o
cmd_read_reg_bit_field_bit2_pos                   cmdline.o
cmd_read_reg_bit_field_port_id                    cmdline.o
cmd_read_reg_bit_field_read                       cmdline.o
cmd_read_reg_bit_field_reg_off                    cmdline.o
cmd_read_reg_bit_field_regfield                   cmdline.o
cmd_read_reg_bit_port_id                          cmdline.o
cmd_read_reg_bit_read                             cmdline.o
cmd_read_reg_bit_reg_off                          cmdline.o
cmd_read_reg_bit_regbit                           cmdline.o
cmd_read_reg_port_id                              cmdline.o
cmd_read_reg_read                                 cmdline.o
cmd_read_reg_reg                                  cmdline.o
cmd_read_reg_reg_off                              cmdline.o
cmd_read_rxd_txd                                  cmdline.o
cmd_read_rxd_txd_desc_id                          cmdline.o
cmd_read_rxd_txd_port_id                          cmdline.o
cmd_read_rxd_txd_queue_id                         cmdline.o
cmd_read_rxd_txd_read                             cmdline.o
cmd_read_rxd_txd_rxd_txd                          cmdline.o
cmd_remove_bonding_slave                          cmdline.o
cmd_removebonding_slave_bonding                   cmdline.o
cmd_removebonding_slave_port                      cmdline.o
cmd_removebonding_slave_remove                    cmdline.o
cmd_removebonding_slave_slave                     cmdline.o
cmd_removebonding_slave_slaveid                   cmdline.o
cmd_reset                                         cmdline.o
cmd_reset_def                                     cmdline.o
cmd_reset_mirror_rule                             cmdline.o
cmd_reset_set                                     cmdline.o
cmd_rm_mirror_rule_mirror                         cmdline.o
cmd_rm_mirror_rule_port                           cmdline.o
cmd_rm_mirror_rule_portid                         cmdline.o
cmd_rm_mirror_rule_reset                          cmdline.o
cmd_rm_mirror_rule_ruleid                         cmdline.o
cmd_rx_vlan_filter                                cmdline.o
cmd_rx_vlan_filter_all                            cmdline.o
cmd_rx_vlan_filter_all_all                        cmdline.o
cmd_rx_vlan_filter_all_portid                     cmdline.o
cmd_rx_vlan_filter_all_rx_vlan                    cmdline.o
cmd_rx_vlan_filter_all_what                       cmdline.o
cmd_rx_vlan_filter_portid                         cmdline.o
cmd_rx_vlan_filter_rx_vlan                        cmdline.o
cmd_rx_vlan_filter_vlanid                         cmdline.o
cmd_rx_vlan_filter_what                           cmdline.o
cmd_set_allmulti_mode_all                         cmdline.o
cmd_set_allmulti_mode_one                         cmdline.o
cmd_set_balance_xmit_policy                       cmdline.o
cmd_set_bond_mac_addr                             cmdline.o
cmd_set_bond_mac_addr_addr                        cmdline.o
cmd_set_bond_mac_addr_bonding                     cmdline.o
cmd_set_bond_mac_addr_mac                         cmdline.o
cmd_set_bond_mac_addr_portnum                     cmdline.o
cmd_set_bond_mac_addr_set                         cmdline.o
cmd_set_bond_mon_period                           cmdline.o
cmd_set_bond_mon_period_bonding                   cmdline.o
cmd_set_bond_mon_period_mon_period                cmdline.o
cmd_set_bond_mon_period_period_ms                 cmdline.o
cmd_set_bond_mon_period_portnum                   cmdline.o
cmd_set_bond_mon_period_set                       cmdline.o
cmd_set_bonding_mode                              cmdline.o
cmd_set_bonding_primary                           cmdline.o
cmd_set_burst_tx_retry                            cmdline.o
cmd_set_burst_tx_retry_burst                      cmdline.o
cmd_set_burst_tx_retry_delay                      cmdline.o
cmd_set_burst_tx_retry_retry                      cmdline.o
cmd_set_burst_tx_retry_retry_num                  cmdline.o
cmd_set_burst_tx_retry_set                        cmdline.o
cmd_set_burst_tx_retry_time                       cmdline.o
cmd_set_burst_tx_retry_tx                         cmdline.o
cmd_set_fdir_input_set                            cmdline.o
cmd_set_fdir_input_set_cmd                        cmdline.o
cmd_set_fdir_input_set_field                      cmdline.o
cmd_set_fdir_input_set_flow_type                  cmdline.o
cmd_set_fdir_input_set_port_id                    cmdline.o
cmd_set_fdir_input_set_select                     cmdline.o
cmd_set_flow_director_flex_mask                   cmdline.o
cmd_set_flow_director_flex_payload                cmdline.o
cmd_set_flow_director_ip_mask                     cmdline.o
cmd_set_flow_director_mac_vlan_mask               cmdline.o
cmd_set_flow_director_tunnel_mask                 cmdline.o
cmd_set_flush_rx                                  cmdline.o
cmd_set_fwd_list                                  cmdline.o
cmd_set_fwd_mask                                  cmdline.o
cmd_set_fwd_mode                                  cmdline.o
cmd_set_hash_global_config                        cmdline.o
cmd_set_hash_global_config_all                    cmdline.o
cmd_set_hash_global_config_enable                 cmdline.o
cmd_set_hash_global_config_flow_type              cmdline.o
cmd_set_hash_global_config_hash_func              cmdline.o
cmd_set_hash_global_config_port_id                cmdline.o
cmd_set_hash_input_set                            cmdline.o
cmd_set_hash_input_set_cmd                        cmdline.o
cmd_set_hash_input_set_field                      cmdline.o
cmd_set_hash_input_set_flow_type                  cmdline.o
cmd_set_hash_input_set_port_id                    cmdline.o
cmd_set_hash_input_set_select                     cmdline.o
cmd_set_link_check                                cmdline.o
cmd_set_link_down                                 cmdline.o
cmd_set_link_down_link_down                       cmdline.o
cmd_set_link_down_port                            cmdline.o
cmd_set_link_down_port_id                         cmdline.o
cmd_set_link_down_set                             cmdline.o
cmd_set_link_up                                   cmdline.o
cmd_set_link_up_link_up                           cmdline.o
cmd_set_link_up_port                              cmdline.o
cmd_set_link_up_port_id                           cmdline.o
cmd_set_link_up_set                               cmdline.o
cmd_set_list_keyword                              cmdline.o
cmd_set_list_name                                 cmdline.o
cmd_set_list_of_items                             cmdline.o
cmd_set_mirror_link                               cmdline.o
cmd_set_mirror_mask                               cmdline.o
cmd_set_numbers                                   cmdline.o
cmd_set_promisc_mode_all                          cmdline.o
cmd_set_promisc_mode_one                          cmdline.o
cmd_set_qmap                                      cmdline.o
cmd_set_set                                       cmdline.o
cmd_set_sym_hash_ena_per_port                     cmdline.o
cmd_set_sym_hash_ena_per_port_all                 cmdline.o
cmd_set_sym_hash_ena_per_port_enable              cmdline.o
cmd_set_sym_hash_ena_per_port_port_id             cmdline.o
cmd_set_txpkts                                    cmdline.o
cmd_set_txpkts_keyword                            cmdline.o
cmd_set_txpkts_lengths                            cmdline.o
cmd_set_txpkts_name                               cmdline.o
cmd_set_txsplit                                   cmdline.o
cmd_set_txsplit_keyword                           cmdline.o
cmd_set_txsplit_mode                              cmdline.o
cmd_set_txsplit_name                              cmdline.o
cmd_set_uc_all_hash_filter                        cmdline.o
cmd_set_uc_all_hash_mode                          cmdline.o
cmd_set_uc_all_hash_port                          cmdline.o
cmd_set_uc_all_hash_portid                        cmdline.o
cmd_set_uc_all_hash_set                           cmdline.o
cmd_set_uc_all_hash_value                         cmdline.o
cmd_set_uc_all_hash_what                          cmdline.o
cmd_set_uc_hash_filter                            cmdline.o
cmd_set_uc_hash_mac                               cmdline.o
cmd_set_uc_hash_mode                              cmdline.o
cmd_set_uc_hash_port                              cmdline.o
cmd_set_uc_hash_portid                            cmdline.o
cmd_set_uc_hash_set                               cmdline.o
cmd_set_uc_hash_what                              cmdline.o
cmd_set_value                                     cmdline.o
cmd_set_vf_macvlan_filter                         cmdline.o
cmd_set_vf_macvlan_filter_type                    cmdline.o
cmd_set_vf_macvlan_mac                            cmdline.o
cmd_set_vf_macvlan_mode                           cmdline.o
cmd_set_vf_macvlan_port                           cmdline.o
cmd_set_vf_macvlan_portid                         cmdline.o
cmd_set_vf_macvlan_set                            cmdline.o
cmd_set_vf_macvlan_vf                             cmdline.o
cmd_set_vf_macvlan_vf_id                          cmdline.o
cmd_set_vf_rxmode                                 cmdline.o
cmd_set_vf_rxmode_mode                            cmdline.o
cmd_set_vf_rxmode_on                              cmdline.o
cmd_set_vf_rxmode_port                            cmdline.o
cmd_set_vf_rxmode_portid                          cmdline.o
cmd_set_vf_rxmode_set                             cmdline.o
cmd_set_vf_rxmode_vf                              cmdline.o
cmd_set_vf_rxmode_vfid                            cmdline.o
cmd_set_vf_rxmode_what                            cmdline.o
cmd_set_vf_traffic                                cmdline.o
cmd_set_what                                      cmdline.o
cmd_setallmulti_allmulti                          cmdline.o
cmd_setallmulti_mode                              cmdline.o
cmd_setallmulti_portall                           cmdline.o
cmd_setallmulti_portnum                           cmdline.o
cmd_setallmulti_set                               cmdline.o
cmd_setbonding_balance_xmit_policy_balance_xmit_policy cmdline.o
cmd_setbonding_balance_xmit_policy_bonding        cmdline.o
cmd_setbonding_balance_xmit_policy_policy         cmdline.o
cmd_setbonding_balance_xmit_policy_port           cmdline.o
cmd_setbonding_balance_xmit_policy_set            cmdline.o
cmd_setbonding_mode_bonding                       cmdline.o
cmd_setbonding_mode_mode                          cmdline.o
cmd_setbonding_mode_port                          cmdline.o
cmd_setbonding_mode_set                           cmdline.o
cmd_setbonding_mode_value                         cmdline.o
cmd_setbonding_primary_bonding                    cmdline.o
cmd_setbonding_primary_port                       cmdline.o
cmd_setbonding_primary_primary                    cmdline.o
cmd_setbonding_primary_set                        cmdline.o
cmd_setbonding_primary_slave                      cmdline.o
cmd_setflushrx_flush_rx                           cmdline.o
cmd_setflushrx_mode                               cmdline.o
cmd_setflushrx_set                                cmdline.o
cmd_setfwd_fwd                                    cmdline.o
cmd_setfwd_mode                                   cmdline.o
cmd_setfwd_set                                    cmdline.o
cmd_setlinkcheck_link_check                       cmdline.o
cmd_setlinkcheck_mode                             cmdline.o
cmd_setlinkcheck_set                              cmdline.o
cmd_setmask_mask                                  cmdline.o
cmd_setmask_set                                   cmdline.o
cmd_setmask_value                                 cmdline.o
cmd_setpromisc_mode                               cmdline.o
cmd_setpromisc_portall                            cmdline.o
cmd_setpromisc_portnum                            cmdline.o
cmd_setpromisc_promisc                            cmdline.o
cmd_setpromisc_set                                cmdline.o
cmd_setqmap_mapvalue                              cmdline.o
cmd_setqmap_portid                                cmdline.o
cmd_setqmap_qmap                                  cmdline.o
cmd_setqmap_queueid                               cmdline.o
cmd_setqmap_set                                   cmdline.o
cmd_setqmap_what                                  cmdline.o
cmd_setvf_traffic_mode                            cmdline.o
cmd_setvf_traffic_port                            cmdline.o
cmd_setvf_traffic_portid                          cmdline.o
cmd_setvf_traffic_set                             cmdline.o
cmd_setvf_traffic_vf                              cmdline.o
cmd_setvf_traffic_vfid                            cmdline.o
cmd_setvf_traffic_what                            cmdline.o
cmd_show_bonding_config                           cmdline.o
cmd_showbonding_config_bonding                    cmdline.o
cmd_showbonding_config_config                     cmdline.o
cmd_showbonding_config_port                       cmdline.o
cmd_showbonding_config_show                       cmdline.o
cmd_showcfg                                       cmdline.o
cmd_showcfg_port                                  cmdline.o
cmd_showcfg_show                                  cmdline.o
cmd_showcfg_what                                  cmdline.o
cmd_showport                                      cmdline.o
cmd_showport_port                                 cmdline.o
cmd_showport_portnum                              cmdline.o
cmd_showport_reta                                 cmdline.o
cmd_showport_reta_list_of_items                   cmdline.o
cmd_showport_reta_port                            cmdline.o
cmd_showport_reta_port_id                         cmdline.o
cmd_showport_reta_reta                            cmdline.o
cmd_showport_reta_rss                             cmdline.o
cmd_showport_reta_show                            cmdline.o
cmd_showport_reta_size                            cmdline.o
cmd_showport_rss_hash                             cmdline.o
cmd_showport_rss_hash_key                         cmdline.o
cmd_showport_rss_hash_port                        cmdline.o
cmd_showport_rss_hash_port_id                     cmdline.o
cmd_showport_rss_hash_rss_hash                    cmdline.o
cmd_showport_rss_hash_rss_hash_info               cmdline.o
cmd_showport_rss_hash_rss_key                     cmdline.o
cmd_showport_rss_hash_show                        cmdline.o
cmd_showport_show                                 cmdline.o
cmd_showport_what                                 cmdline.o
cmd_showportall                                   cmdline.o
cmd_showportall_all                               cmdline.o
cmd_showportall_port                              cmdline.o
cmd_showportall_show                              cmdline.o
cmd_showportall_what                              cmdline.o
cmd_showqueue                                     cmdline.o
cmd_showqueue_portnum                             cmdline.o
cmd_showqueue_queuenum                            cmdline.o
cmd_showqueue_show                                cmdline.o
cmd_showqueue_type                                cmdline.o
cmd_showqueue_what                                cmdline.o
cmd_start                                         cmdline.o
cmd_start_start                                   cmdline.o
cmd_start_tx_first                                cmdline.o
cmd_start_tx_first_start                          cmdline.o
cmd_start_tx_first_tx_first                       cmdline.o
cmd_stop                                          cmdline.o
cmd_stop_stop                                     cmdline.o
cmd_syn_filter                                    cmdline.o
cmd_syn_filter_filter                             cmdline.o
cmd_syn_filter_high                               cmdline.o
cmd_syn_filter_ops                                cmdline.o
cmd_syn_filter_port_id                            cmdline.o
cmd_syn_filter_priority                           cmdline.o
cmd_syn_filter_queue                              cmdline.o
cmd_syn_filter_queue_id                           cmdline.o
cmd_tso_set                                       cmdline.o
cmd_tso_set_mode                                  cmdline.o
cmd_tso_set_portid                                cmdline.o
cmd_tso_set_tso                                   cmdline.o
cmd_tso_set_tso_segsz                             cmdline.o
cmd_tso_show                                      cmdline.o
cmd_tso_show_mode                                 cmdline.o
cmd_tunnel_filter                                 cmdline.o
cmd_tunnel_filter_cmd                             cmdline.o
cmd_tunnel_filter_filter_type                     cmdline.o
cmd_tunnel_filter_inner_mac                       cmdline.o
cmd_tunnel_filter_innner_vlan                     cmdline.o
cmd_tunnel_filter_ip_value                        cmdline.o
cmd_tunnel_filter_outer_mac                       cmdline.o
cmd_tunnel_filter_port_id                         cmdline.o
cmd_tunnel_filter_queue_num                       cmdline.o
cmd_tunnel_filter_tenant_id                       cmdline.o
cmd_tunnel_filter_tunnel_type                     cmdline.o
cmd_tunnel_filter_what                            cmdline.o
cmd_tunnel_udp_config                             cmdline.o
cmd_tunnel_udp_config_cmd                         cmdline.o
cmd_tunnel_udp_config_port_id                     cmdline.o
cmd_tunnel_udp_config_udp_port                    cmdline.o
cmd_tunnel_udp_config_what                        cmdline.o
cmd_tx_vlan_reset                                 cmdline.o
cmd_tx_vlan_reset_portid                          cmdline.o
cmd_tx_vlan_reset_reset                           cmdline.o
cmd_tx_vlan_reset_tx_vlan                         cmdline.o
cmd_tx_vlan_set                                   cmdline.o
cmd_tx_vlan_set_portid                            cmdline.o
cmd_tx_vlan_set_pvid                              cmdline.o
cmd_tx_vlan_set_pvid_mode                         cmdline.o
cmd_tx_vlan_set_pvid_port_id                      cmdline.o
cmd_tx_vlan_set_pvid_pvid                         cmdline.o
cmd_tx_vlan_set_pvid_set                          cmdline.o
cmd_tx_vlan_set_pvid_tx_vlan                      cmdline.o
cmd_tx_vlan_set_pvid_vlan_id                      cmdline.o
cmd_tx_vlan_set_qinq                              cmdline.o
cmd_tx_vlan_set_qinq_portid                       cmdline.o
cmd_tx_vlan_set_qinq_set                          cmdline.o
cmd_tx_vlan_set_qinq_tx_vlan                      cmdline.o
cmd_tx_vlan_set_qinq_vlanid                       cmdline.o
cmd_tx_vlan_set_qinq_vlanid_outer                 cmdline.o
cmd_tx_vlan_set_set                               cmdline.o
cmd_tx_vlan_set_tx_vlan                           cmdline.o
cmd_tx_vlan_set_vlanid                            cmdline.o
cmd_vf_mac_addr_addr                              cmdline.o
cmd_vf_mac_addr_cmd                               cmdline.o
cmd_vf_mac_addr_filter                            cmdline.o
cmd_vf_mac_addr_port                              cmdline.o
cmd_vf_mac_addr_portnum                           cmdline.o
cmd_vf_mac_addr_vf                                cmdline.o
cmd_vf_mac_addr_vfnum                             cmdline.o
cmd_vf_mac_addr_what                              cmdline.o
cmd_vf_rate_limit                                 cmdline.o
cmd_vf_rate_limit_port                            cmdline.o
cmd_vf_rate_limit_portnum                         cmdline.o
cmd_vf_rate_limit_q_msk                           cmdline.o
cmd_vf_rate_limit_q_msk_val                       cmdline.o
cmd_vf_rate_limit_rate                            cmdline.o
cmd_vf_rate_limit_ratenum                         cmdline.o
cmd_vf_rate_limit_set                             cmdline.o
cmd_vf_rate_limit_vf                              cmdline.o
cmd_vf_rate_limit_vfnum                           cmdline.o
cmd_vf_rx_vlan_filter_port                        cmdline.o
cmd_vf_rx_vlan_filter_portid                      cmdline.o
cmd_vf_rx_vlan_filter_rx_vlan                     cmdline.o
cmd_vf_rx_vlan_filter_vf                          cmdline.o
cmd_vf_rx_vlan_filter_vf_mask                     cmdline.o
cmd_vf_rx_vlan_filter_vlanid                      cmdline.o
cmd_vf_rx_vlan_filter_what                        cmdline.o
cmd_vf_rxvlan_filter                              cmdline.o
cmd_vlan_offload                                  cmdline.o
cmd_vlan_offload_on                               cmdline.o
cmd_vlan_offload_portid                           cmdline.o
cmd_vlan_offload_set                              cmdline.o
cmd_vlan_offload_vlan                             cmdline.o
cmd_vlan_offload_what                             cmdline.o
cmd_vlan_tpid                                     cmdline.o
cmd_vlan_tpid_portid                              cmdline.o
cmd_vlan_tpid_set                                 cmdline.o
cmd_vlan_tpid_tpid                                cmdline.o
cmd_vlan_tpid_vlan                                cmdline.o
cmd_vlan_tpid_what                                cmdline.o
cmd_write_reg                                     cmdline.o
cmd_write_reg_bit                                 cmdline.o
cmd_write_reg_bit_bit_pos                         cmdline.o
cmd_write_reg_bit_field                           cmdline.o
cmd_write_reg_bit_field_bit1_pos                  cmdline.o
cmd_write_reg_bit_field_bit2_pos                  cmdline.o
cmd_write_reg_bit_field_port_id                   cmdline.o
cmd_write_reg_bit_field_reg_off                   cmdline.o
cmd_write_reg_bit_field_regfield                  cmdline.o
cmd_write_reg_bit_field_value                     cmdline.o
cmd_write_reg_bit_field_write                     cmdline.o
cmd_write_reg_bit_port_id                         cmdline.o
cmd_write_reg_bit_reg_off                         cmdline.o
cmd_write_reg_bit_regbit                          cmdline.o
cmd_write_reg_bit_value                           cmdline.o
cmd_write_reg_bit_write                           cmdline.o
cmd_write_reg_port_id                             cmdline.o
cmd_write_reg_reg                                 cmdline.o
cmd_write_reg_reg_off                             cmdline.o
cmd_write_reg_value                               cmdline.o
cmd_write_reg_write                               cmdline.o
cmdline_interact                                  /home/xyh/test/POFSwitch+DPDK+V1.0.5.3/dpdk-2.2.0/x86_64-native-linuxapp-gcc/lib/libdpdk.so
                                                  cmdline.o
cmdline_interact@@DPDK_2.0                        /home/xyh/test/POFSwitch+DPDK+V1.0.5.3/dpdk-2.2.0/x86_64-native-linuxapp-gcc/lib/libdpdk.so
cmdline_interact@DPDK_2.0                         /home/xyh/test/POFSwitch+DPDK+V1.0.5.3/dpdk-2.2.0/x86_64-native-linuxapp-gcc/lib/libdpdk.so
cmdline_parse_etheraddr                           /home/xyh/test/POFSwitch+DPDK+V1.0.5.3/dpdk-2.2.0/x86_64-native-linuxapp-gcc/lib/libdpdk.so
                                                  parameters.o
cmdline_parse_etheraddr@@DPDK_2.0                 /home/xyh/test/POFSwitch+DPDK+V1.0.5.3/dpdk-2.2.0/x86_64-native-linuxapp-gcc/lib/libdpdk.so
cmdline_parse_etheraddr@DPDK_2.0                  /home/xyh/test/POFSwitch+DPDK+V1.0.5.3/dpdk-2.2.0/x86_64-native-linuxapp-gcc/lib/libdpdk.so
cmdline_printf                                    /home/xyh/test/POFSwitch+DPDK+V1.0.5.3/dpdk-2.2.0/x86_64-native-linuxapp-gcc/lib/libdpdk.so
                                                  cmdline.o
cmdline_printf@@DPDK_2.0                          /home/xyh/test/POFSwitch+DPDK+V1.0.5.3/dpdk-2.2.0/x86_64-native-linuxapp-gcc/lib/libdpdk.so
cmdline_printf@DPDK_2.0                           /home/xyh/test/POFSwitch+DPDK+V1.0.5.3/dpdk-2.2.0/x86_64-native-linuxapp-gcc/lib/libdpdk.so
cmdline_quit                                      /home/xyh/test/POFSwitch+DPDK+V1.0.5.3/dpdk-2.2.0/x86_64-native-linuxapp-gcc/lib/libdpdk.so
                                                  cmdline.o
cmdline_quit@@DPDK_2.0                            /home/xyh/test/POFSwitch+DPDK+V1.0.5.3/dpdk-2.2.0/x86_64-native-linuxapp-gcc/lib/libdpdk.so
cmdline_quit@DPDK_2.0                             /home/xyh/test/POFSwitch+DPDK+V1.0.5.3/dpdk-2.2.0/x86_64-native-linuxapp-gcc/lib/libdpdk.so
cmdline_stdin_exit                                /home/xyh/test/POFSwitch+DPDK+V1.0.5.3/dpdk-2.2.0/x86_64-native-linuxapp-gcc/lib/libdpdk.so
                                                  cmdline.o
cmdline_stdin_exit@@DPDK_2.0                      /home/xyh/test/POFSwitch+DPDK+V1.0.5.3/dpdk-2.2.0/x86_64-native-linuxapp-gcc/lib/libdpdk.so
cmdline_stdin_exit@DPDK_2.0                       /home/xyh/test/POFSwitch+DPDK+V1.0.5.3/dpdk-2.2.0/x86_64-native-linuxapp-gcc/lib/libdpdk.so
cmdline_stdin_new                                 /home/xyh/test/POFSwitch+DPDK+V1.0.5.3/dpdk-2.2.0/x86_64-native-linuxapp-gcc/lib/libdpdk.so
                                                  cmdline.o
cmdline_stdin_new@@DPDK_2.0                       /home/xyh/test/POFSwitch+DPDK+V1.0.5.3/dpdk-2.2.0/x86_64-native-linuxapp-gcc/lib/libdpdk.so
cmdline_stdin_new@DPDK_2.0                        /home/xyh/test/POFSwitch+DPDK+V1.0.5.3/dpdk-2.2.0/x86_64-native-linuxapp-gcc/lib/libdpdk.so
conj                                              /usr/lib/gcc/x86_64-linux-gnu/4.9/../../../x86_64-linux-gnu/libm.so
conj@@GLIBC_2.2.5                                 /usr/lib/gcc/x86_64-linux-gnu/4.9/../../../x86_64-linux-gnu/libm.so
conj@GLIBC_2.2.5                                  /usr/lib/gcc/x86_64-linux-gnu/4.9/../../../x86_64-linux-gnu/libm.so
conjf                                             /usr/lib/gcc/x86_64-linux-gnu/4.9/../../../x86_64-linux-gnu/libm.so
conjf@@GLIBC_2.2.5                                /usr/lib/gcc/x86_64-linux-gnu/4.9/../../../x86_64-linux-gnu/libm.so
conjf@GLIBC_2.2.5                                 /usr/lib/gcc/x86_64-linux-gnu/4.9/../../../x86_64-linux-gnu/libm.so
conjl                                             /usr/lib/gcc/x86_64-linux-gnu/4.9/../../../x86_64-linux-gnu/libm.so
conjl@@GLIBC_2.2.5                                /usr/lib/gcc/x86_64-linux-gnu/4.9/../../../x86_64-linux-gnu/libm.so
conjl@GLIBC_2.2.5                                 /usr/lib/gcc/x86_64-linux-gnu/4.9/../../../x86_64-linux-gnu/libm.so
connect                                           /lib/x86_64-linux-gnu/libpthread.so.0
connect@@GLIBC_2.2.5                              /lib/x86_64-linux-gnu/libpthread.so.0
                                                  /lib/x86_64-linux-gnu/libc.so.6
connect@GLIBC_2.2.5                               /lib/x86_64-linux-gnu/libpthread.so.0
                                                  /home/xyh/test/POFSwitch+DPDK+V1.0.5.3/dpdk-2.2.0/x86_64-native-linuxapp-gcc/lib/libdpdk.so
copysign                                          /usr/lib/gcc/x86_64-linux-gnu/4.9/../../../x86_64-linux-gnu/libm.so
copysign@@GLIBC_2.2.5                             /usr/lib/gcc/x86_64-linux-gnu/4.9/../../../x86_64-linux-gnu/libm.so
                                                  /lib/x86_64-linux-gnu/libc.so.6
copysign@GLIBC_2.2.5                              /usr/lib/gcc/x86_64-linux-gnu/4.9/../../../x86_64-linux-gnu/libm.so
copysignf                                         /usr/lib/gcc/x86_64-linux-gnu/4.9/../../../x86_64-linux-gnu/libm.so
copysignf@@GLIBC_2.2.5                            /usr/lib/gcc/x86_64-linux-gnu/4.9/../../../x86_64-linux-gnu/libm.so
                                                  /lib/x86_64-linux-gnu/libc.so.6
copysignf@GLIBC_2.2.5                             /usr/lib/gcc/x86_64-linux-gnu/4.9/../../../x86_64-linux-gnu/libm.so
copysignl                                         /usr/lib/gcc/x86_64-linux-gnu/4.9/../../../x86_64-linux-gnu/libm.so
copysignl@@GLIBC_2.2.5                            /usr/lib/gcc/x86_64-linux-gnu/4.9/../../../x86_64-linux-gnu/libm.so
                                                  /lib/x86_64-linux-gnu/libc.so.6
copysignl@GLIBC_2.2.5                             /usr/lib/gcc/x86_64-linux-gnu/4.9/../../../x86_64-linux-gnu/libm.so
cos                                               /usr/lib/gcc/x86_64-linux-gnu/4.9/../../../x86_64-linux-gnu/libm.so
cos@@GLIBC_2.2.5                                  /usr/lib/gcc/x86_64-linux-gnu/4.9/../../../x86_64-linux-gnu/libm.so
cos@GLIBC_2.2.5                                   /usr/lib/gcc/x86_64-linux-gnu/4.9/../../../x86_64-linux-gnu/libm.so
cosf                                              /usr/lib/gcc/x86_64-linux-gnu/4.9/../../../x86_64-linux-gnu/libm.so
cosf@@GLIBC_2.2.5                                 /usr/lib/gcc/x86_64-linux-gnu/4.9/../../../x86_64-linux-gnu/libm.so
cosf@GLIBC_2.2.5                                  /usr/lib/gcc/x86_64-linux-gnu/4.9/../../../x86_64-linux-gnu/libm.so
cosh                                              /usr/lib/gcc/x86_64-linux-gnu/4.9/../../../x86_64-linux-gnu/libm.so
cosh@@GLIBC_2.2.5                                 /usr/lib/gcc/x86_64-linux-gnu/4.9/../../../x86_64-linux-gnu/libm.so
cosh@GLIBC_2.2.5                                  /usr/lib/gcc/x86_64-linux-gnu/4.9/../../../x86_64-linux-gnu/libm.so
coshf                                             /usr/lib/gcc/x86_64-linux-gnu/4.9/../../../x86_64-linux-gnu/libm.so
coshf@@GLIBC_2.2.5                                /usr/lib/gcc/x86_64-linux-gnu/4.9/../../../x86_64-linux-gnu/libm.so
coshf@GLIBC_2.2.5                                 /usr/lib/gcc/x86_64-linux-gnu/4.9/../../../x86_64-linux-gnu/libm.so
coshl                                             /usr/lib/gcc/x86_64-linux-gnu/4.9/../../../x86_64-linux-gnu/libm.so
coshl@@GLIBC_2.2.5                                /usr/lib/gcc/x86_64-linux-gnu/4.9/../../../x86_64-linux-gnu/libm.so
coshl@GLIBC_2.2.5                                 /usr/lib/gcc/x86_64-linux-gnu/4.9/../../../x86_64-linux-gnu/libm.so
cosl                                              /usr/lib/gcc/x86_64-linux-gnu/4.9/../../../x86_64-linux-gnu/libm.so
cosl@@GLIBC_2.2.5                                 /usr/lib/gcc/x86_64-linux-gnu/4.9/../../../x86_64-linux-gnu/libm.so
cosl@GLIBC_2.2.5                                  /usr/lib/gcc/x86_64-linux-gnu/4.9/../../../x86_64-linux-gnu/libm.so
cpow                                              /usr/lib/gcc/x86_64-linux-gnu/4.9/../../../x86_64-linux-gnu/libm.so
cpow@@GLIBC_2.2.5                                 /usr/lib/gcc/x86_64-linux-gnu/4.9/../../../x86_64-linux-gnu/libm.so
cpow@GLIBC_2.2.5                                  /usr/lib/gcc/x86_64-linux-gnu/4.9/../../../x86_64-linux-gnu/libm.so
cpowf                                             /usr/lib/gcc/x86_64-linux-gnu/4.9/../../../x86_64-linux-gnu/libm.so
cpowf@@GLIBC_2.2.5                                /usr/lib/gcc/x86_64-linux-gnu/4.9/../../../x86_64-linux-gnu/libm.so
cpowf@GLIBC_2.2.5                                 /usr/lib/gcc/x86_64-linux-gnu/4.9/../../../x86_64-linux-gnu/libm.so
cpowl                                             /usr/lib/gcc/x86_64-linux-gnu/4.9/../../../x86_64-linux-gnu/libm.so
cpowl@@GLIBC_2.2.5                                /usr/lib/gcc/x86_64-linux-gnu/4.9/../../../x86_64-linux-gnu/libm.so
cpowl@GLIBC_2.2.5                                 /usr/lib/gcc/x86_64-linux-gnu/4.9/../../../x86_64-linux-gnu/libm.so
cproj                                             /usr/lib/gcc/x86_64-linux-gnu/4.9/../../../x86_64-linux-gnu/libm.so
cproj@@GLIBC_2.2.5                                /usr/lib/gcc/x86_64-linux-gnu/4.9/../../../x86_64-linux-gnu/libm.so
cproj@GLIBC_2.2.5                                 /usr/lib/gcc/x86_64-linux-gnu/4.9/../../../x86_64-linux-gnu/libm.so
cprojf                                            /usr/lib/gcc/x86_64-linux-gnu/4.9/../../../x86_64-linux-gnu/libm.so
cprojf@@GLIBC_2.2.5                               /usr/lib/gcc/x86_64-linux-gnu/4.9/../../../x86_64-linux-gnu/libm.so
cprojf@GLIBC_2.2.5                                /usr/lib/gcc/x86_64-linux-gnu/4.9/../../../x86_64-linux-gnu/libm.so
cprojl                                            /usr/lib/gcc/x86_64-linux-gnu/4.9/../../../x86_64-linux-gnu/libm.so
cprojl@@GLIBC_2.2.5                               /usr/lib/gcc/x86_64-linux-gnu/4.9/../../../x86_64-linux-gnu/libm.so
cprojl@GLIBC_2.2.5                                /usr/lib/gcc/x86_64-linux-gnu/4.9/../../../x86_64-linux-gnu/libm.so
creal                                             /usr/lib/gcc/x86_64-linux-gnu/4.9/../../../x86_64-linux-gnu/libm.so
creal@@GLIBC_2.2.5                                /usr/lib/gcc/x86_64-linux-gnu/4.9/../../../x86_64-linux-gnu/libm.so
creal@GLIBC_2.2.5                                 /usr/lib/gcc/x86_64-linux-gnu/4.9/../../../x86_64-linux-gnu/libm.so
crealf                                            /usr/lib/gcc/x86_64-linux-gnu/4.9/../../../x86_64-linux-gnu/libm.so
crealf@@GLIBC_2.2.5                               /usr/lib/gcc/x86_64-linux-gnu/4.9/../../../x86_64-linux-gnu/libm.so
crealf@GLIBC_2.2.5                                /usr/lib/gcc/x86_64-linux-gnu/4.9/../../../x86_64-linux-gnu/libm.so
creall                                            /usr/lib/gcc/x86_64-linux-gnu/4.9/../../../x86_64-linux-gnu/libm.so
creall@@GLIBC_2.2.5                               /usr/lib/gcc/x86_64-linux-gnu/4.9/../../../x86_64-linux-gnu/libm.so
creall@GLIBC_2.2.5                                /usr/lib/gcc/x86_64-linux-gnu/4.9/../../../x86_64-linux-gnu/libm.so
creat64                                           /lib/x86_64-linux-gnu/libc.so.6
creat64@@GLIBC_2.2.5                              /lib/x86_64-linux-gnu/libc.so.6
creat64@GLIBC_2.2.5                               /lib/x86_64-linux-gnu/libc.so.6
csin                                              /usr/lib/gcc/x86_64-linux-gnu/4.9/../../../x86_64-linux-gnu/libm.so
csin@@GLIBC_2.2.5                                 /usr/lib/gcc/x86_64-linux-gnu/4.9/../../../x86_64-linux-gnu/libm.so
csin@GLIBC_2.2.5                                  /usr/lib/gcc/x86_64-linux-gnu/4.9/../../../x86_64-linux-gnu/libm.so
csinf                                             /usr/lib/gcc/x86_64-linux-gnu/4.9/../../../x86_64-linux-gnu/libm.so
csinf@@GLIBC_2.2.5                                /usr/lib/gcc/x86_64-linux-gnu/4.9/../../../x86_64-linux-gnu/libm.so
csinf@GLIBC_2.2.5                                 /usr/lib/gcc/x86_64-linux-gnu/4.9/../../../x86_64-linux-gnu/libm.so
csinh                                             /usr/lib/gcc/x86_64-linux-gnu/4.9/../../../x86_64-linux-gnu/libm.so
csinh@@GLIBC_2.2.5                                /usr/lib/gcc/x86_64-linux-gnu/4.9/../../../x86_64-linux-gnu/libm.so
csinh@GLIBC_2.2.5                                 /usr/lib/gcc/x86_64-linux-gnu/4.9/../../../x86_64-linux-gnu/libm.so
csinhf                                            /usr/lib/gcc/x86_64-linux-gnu/4.9/../../../x86_64-linux-gnu/libm.so
csinhf@@GLIBC_2.2.5                               /usr/lib/gcc/x86_64-linux-gnu/4.9/../../../x86_64-linux-gnu/libm.so
csinhf@GLIBC_2.2.5                                /usr/lib/gcc/x86_64-linux-gnu/4.9/../../../x86_64-linux-gnu/libm.so
csinhl                                            /usr/lib/gcc/x86_64-linux-gnu/4.9/../../../x86_64-linux-gnu/libm.so
csinhl@@GLIBC_2.2.5                               /usr/lib/gcc/x86_64-linux-gnu/4.9/../../../x86_64-linux-gnu/libm.so
csinhl@GLIBC_2.2.5                                /usr/lib/gcc/x86_64-linux-gnu/4.9/../../../x86_64-linux-gnu/libm.so
csinl                                             /usr/lib/gcc/x86_64-linux-gnu/4.9/../../../x86_64-linux-gnu/libm.so
csinl@@GLIBC_2.2.5                                /usr/lib/gcc/x86_64-linux-gnu/4.9/../../../x86_64-linux-gnu/libm.so
csinl@GLIBC_2.2.5                                 /usr/lib/gcc/x86_64-linux-gnu/4.9/../../../x86_64-linux-gnu/libm.so
csqrt                                             /usr/lib/gcc/x86_64-linux-gnu/4.9/../../../x86_64-linux-gnu/libm.so
csqrt@@GLIBC_2.2.5                                /usr/lib/gcc/x86_64-linux-gnu/4.9/../../../x86_64-linux-gnu/libm.so
csqrt@GLIBC_2.2.5                                 /usr/lib/gcc/x86_64-linux-gnu/4.9/../../../x86_64-linux-gnu/libm.so
csqrtf                                            /usr/lib/gcc/x86_64-linux-gnu/4.9/../../../x86_64-linux-gnu/libm.so
csqrtf@@GLIBC_2.2.5                               /usr/lib/gcc/x86_64-linux-gnu/4.9/../../../x86_64-linux-gnu/libm.so
csqrtf@GLIBC_2.2.5                                /usr/lib/gcc/x86_64-linux-gnu/4.9/../../../x86_64-linux-gnu/libm.so
csqrtl                                            /usr/lib/gcc/x86_64-linux-gnu/4.9/../../../x86_64-linux-gnu/libm.so
csqrtl@@GLIBC_2.2.5                               /usr/lib/gcc/x86_64-linux-gnu/4.9/../../../x86_64-linux-gnu/libm.so
csqrtl@GLIBC_2.2.5                                /usr/lib/gcc/x86_64-linux-gnu/4.9/../../../x86_64-linux-gnu/libm.so
csum_fwd_engine                                   csumonly.o
                                                  testpmd.o
ctan                                              /usr/lib/gcc/x86_64-linux-gnu/4.9/../../../x86_64-linux-gnu/libm.so
ctan@@GLIBC_2.2.5                                 /usr/lib/gcc/x86_64-linux-gnu/4.9/../../../x86_64-linux-gnu/libm.so
ctan@GLIBC_2.2.5                                  /usr/lib/gcc/x86_64-linux-gnu/4.9/../../../x86_64-linux-gnu/libm.so
ctanf                                             /usr/lib/gcc/x86_64-linux-gnu/4.9/../../../x86_64-linux-gnu/libm.so
ctanf@@GLIBC_2.2.5                                /usr/lib/gcc/x86_64-linux-gnu/4.9/../../../x86_64-linux-gnu/libm.so
ctanf@GLIBC_2.2.5                                 /usr/lib/gcc/x86_64-linux-gnu/4.9/../../../x86_64-linux-gnu/libm.so
ctanh                                             /usr/lib/gcc/x86_64-linux-gnu/4.9/../../../x86_64-linux-gnu/libm.so
ctanh@@GLIBC_2.2.5                                /usr/lib/gcc/x86_64-linux-gnu/4.9/../../../x86_64-linux-gnu/libm.so
ctanh@GLIBC_2.2.5                                 /usr/lib/gcc/x86_64-linux-gnu/4.9/../../../x86_64-linux-gnu/libm.so
ctanhf                                            /usr/lib/gcc/x86_64-linux-gnu/4.9/../../../x86_64-linux-gnu/libm.so
ctanhf@@GLIBC_2.2.5                               /usr/lib/gcc/x86_64-linux-gnu/4.9/../../../x86_64-linux-gnu/libm.so
ctanhf@GLIBC_2.2.5                                /usr/lib/gcc/x86_64-linux-gnu/4.9/../../../x86_64-linux-gnu/libm.so
ctanhl                                            /usr/lib/gcc/x86_64-linux-gnu/4.9/../../../x86_64-linux-gnu/libm.so
ctanhl@@GLIBC_2.2.5                               /usr/lib/gcc/x86_64-linux-gnu/4.9/../../../x86_64-linux-gnu/libm.so
ctanhl@GLIBC_2.2.5                                /usr/lib/gcc/x86_64-linux-gnu/4.9/../../../x86_64-linux-gnu/libm.so
ctanl                                             /usr/lib/gcc/x86_64-linux-gnu/4.9/../../../x86_64-linux-gnu/libm.so
ctanl@@GLIBC_2.2.5                                /usr/lib/gcc/x86_64-linux-gnu/4.9/../../../x86_64-linux-gnu/libm.so
ctanl@GLIBC_2.2.5                                 /usr/lib/gcc/x86_64-linux-gnu/4.9/../../../x86_64-linux-gnu/libm.so
cur_fwd_config                                    testpmd.o
                                                  config.o
cur_fwd_eng                                       testpmd.o
                                                  config.o
data_start                                        /usr/lib/gcc/x86_64-linux-gnu/4.9/../../../x86_64-linux-gnu/crt1.o
daylight                                          /lib/x86_64-linux-gnu/libc.so.6
daylight@@GLIBC_2.2.5                             /lib/x86_64-linux-gnu/libc.so.6
daylight@GLIBC_2.2.5                              /lib/x86_64-linux-gnu/libc.so.6
dcb_config                                        testpmd.o
                                                  config.o
dcb_test                                          testpmd.o
dcgettext                                         /lib/x86_64-linux-gnu/libc.so.6
dcgettext@@GLIBC_2.2.5                            /lib/x86_64-linux-gnu/libc.so.6
dcgettext@GLIBC_2.2.5                             /lib/x86_64-linux-gnu/libc.so.6
dcngettext                                        /lib/x86_64-linux-gnu/libc.so.6
dcngettext@@GLIBC_2.2.5                           /lib/x86_64-linux-gnu/libc.so.6
dcngettext@GLIBC_2.2.5                            /lib/x86_64-linux-gnu/libc.so.6
detach_port                                       testpmd.o
                                                  cmdline.o
dev_set_link_down                                 testpmd.o
                                                  cmdline.o
dev_set_link_up                                   testpmd.o
                                                  cmdline.o
dgettext                                          /lib/x86_64-linux-gnu/libc.so.6
dgettext@@GLIBC_2.2.5                             /lib/x86_64-linux-gnu/libc.so.6
dgettext@GLIBC_2.2.5                              /lib/x86_64-linux-gnu/libc.so.6
dl_iterate_phdr                                   /lib/x86_64-linux-gnu/libc.so.6
dl_iterate_phdr@@GLIBC_2.2.5                      /lib/x86_64-linux-gnu/libc.so.6
dl_iterate_phdr@GLIBC_2.2.5                       /lib/x86_64-linux-gnu/libc.so.6
                                                  /usr/lib/gcc/x86_64-linux-gnu/4.9/libgcc_s.so
dlvsym                                            /usr/lib/gcc/x86_64-linux-gnu/4.9/../../../x86_64-linux-gnu/libdl.so
dlvsym@@GLIBC_2.2.5                               /usr/lib/gcc/x86_64-linux-gnu/4.9/../../../x86_64-linux-gnu/libdl.so
dlvsym@GLIBC_2.2.5                                /usr/lib/gcc/x86_64-linux-gnu/4.9/../../../x86_64-linux-gnu/libdl.so
dngettext                                         /lib/x86_64-linux-gnu/libc.so.6
dngettext@@GLIBC_2.2.5                            /lib/x86_64-linux-gnu/libc.so.6
dngettext@GLIBC_2.2.5                             /lib/x86_64-linux-gnu/libc.so.6
drem                                              /usr/lib/gcc/x86_64-linux-gnu/4.9/../../../x86_64-linux-gnu/libm.so
drem@@GLIBC_2.2.5                                 /usr/lib/gcc/x86_64-linux-gnu/4.9/../../../x86_64-linux-gnu/libm.so
drem@GLIBC_2.2.5                                  /usr/lib/gcc/x86_64-linux-gnu/4.9/../../../x86_64-linux-gnu/libm.so
dremf                                             /usr/lib/gcc/x86_64-linux-gnu/4.9/../../../x86_64-linux-gnu/libm.so
dremf@@GLIBC_2.2.5                                /usr/lib/gcc/x86_64-linux-gnu/4.9/../../../x86_64-linux-gnu/libm.so
dremf@GLIBC_2.2.5                                 /usr/lib/gcc/x86_64-linux-gnu/4.9/../../../x86_64-linux-gnu/libm.so
dreml                                             /usr/lib/gcc/x86_64-linux-gnu/4.9/../../../x86_64-linux-gnu/libm.so
dreml@@GLIBC_2.2.5                                /usr/lib/gcc/x86_64-linux-gnu/4.9/../../../x86_64-linux-gnu/libm.so
dreml@GLIBC_2.2.5                                 /usr/lib/gcc/x86_64-linux-gnu/4.9/../../../x86_64-linux-gnu/libm.so
dup                                               /lib/x86_64-linux-gnu/libc.so.6
dup2                                              /lib/x86_64-linux-gnu/libc.so.6
dup2@@GLIBC_2.2.5                                 /lib/x86_64-linux-gnu/libc.so.6
dup2@GLIBC_2.2.5                                  /lib/x86_64-linux-gnu/libc.so.6
dup3                                              /lib/x86_64-linux-gnu/libc.so.6
dup3@@GLIBC_2.9                                   /lib/x86_64-linux-gnu/libc.so.6
dup3@GLIBC_2.9                                    /lib/x86_64-linux-gnu/libc.so.6
dup@@GLIBC_2.2.5                                  /lib/x86_64-linux-gnu/libc.so.6
dup@GLIBC_2.2.5                                   /lib/x86_64-linux-gnu/libc.so.6
duplocale                                         /lib/x86_64-linux-gnu/libc.so.6
duplocale@@GLIBC_2.3                              /lib/x86_64-linux-gnu/libc.so.6
duplocale@GLIBC_2.3                               /lib/x86_64-linux-gnu/libc.so.6
eaccess                                           /lib/x86_64-linux-gnu/libc.so.6
eaccess@@GLIBC_2.4                                /lib/x86_64-linux-gnu/libc.so.6
eaccess@GLIBC_2.4                                 /lib/x86_64-linux-gnu/libc.so.6
endmntent                                         /lib/x86_64-linux-gnu/libc.so.6
endmntent@@GLIBC_2.2.5                            /lib/x86_64-linux-gnu/libc.so.6
endmntent@GLIBC_2.2.5                             /lib/x86_64-linux-gnu/libc.so.6
endutent                                          /lib/x86_64-linux-gnu/libc.so.6
endutent@@GLIBC_2.2.5                             /lib/x86_64-linux-gnu/libc.so.6
endutent@GLIBC_2.2.5                              /lib/x86_64-linux-gnu/libc.so.6
environ                                           /lib/x86_64-linux-gnu/libc.so.6
environ@@GLIBC_2.2.5                              /lib/x86_64-linux-gnu/libc.so.6
environ@GLIBC_2.2.5                               /lib/x86_64-linux-gnu/libc.so.6
                                                  /usr/lib/gcc/x86_64-linux-gnu/4.9/../../../x86_64-linux-gnu/libdl.so
erand48_r                                         /lib/x86_64-linux-gnu/libc.so.6
erand48_r@@GLIBC_2.2.5                            /lib/x86_64-linux-gnu/libc.so.6
erand48_r@GLIBC_2.2.5                             /lib/x86_64-linux-gnu/libc.so.6
erf                                               /usr/lib/gcc/x86_64-linux-gnu/4.9/../../../x86_64-linux-gnu/libm.so
erf@@GLIBC_2.2.5                                  /usr/lib/gcc/x86_64-linux-gnu/4.9/../../../x86_64-linux-gnu/libm.so
erf@GLIBC_2.2.5                                   /usr/lib/gcc/x86_64-linux-gnu/4.9/../../../x86_64-linux-gnu/libm.so
erfc                                              /usr/lib/gcc/x86_64-linux-gnu/4.9/../../../x86_64-linux-gnu/libm.so
erfc@@GLIBC_2.2.5                                 /usr/lib/gcc/x86_64-linux-gnu/4.9/../../../x86_64-linux-gnu/libm.so
erfc@GLIBC_2.2.5                                  /usr/lib/gcc/x86_64-linux-gnu/4.9/../../../x86_64-linux-gnu/libm.so
erfcf                                             /usr/lib/gcc/x86_64-linux-gnu/4.9/../../../x86_64-linux-gnu/libm.so
erfcf@@GLIBC_2.2.5                                /usr/lib/gcc/x86_64-linux-gnu/4.9/../../../x86_64-linux-gnu/libm.so
erfcf@GLIBC_2.2.5                                 /usr/lib/gcc/x86_64-linux-gnu/4.9/../../../x86_64-linux-gnu/libm.so
erfcl                                             /usr/lib/gcc/x86_64-linux-gnu/4.9/../../../x86_64-linux-gnu/libm.so
erfcl@@GLIBC_2.2.5                                /usr/lib/gcc/x86_64-linux-gnu/4.9/../../../x86_64-linux-gnu/libm.so
erfcl@GLIBC_2.2.5                                 /usr/lib/gcc/x86_64-linux-gnu/4.9/../../../x86_64-linux-gnu/libm.so
erff                                              /usr/lib/gcc/x86_64-linux-gnu/4.9/../../../x86_64-linux-gnu/libm.so
erff@@GLIBC_2.2.5                                 /usr/lib/gcc/x86_64-linux-gnu/4.9/../../../x86_64-linux-gnu/libm.so
erff@GLIBC_2.2.5                                  /usr/lib/gcc/x86_64-linux-gnu/4.9/../../../x86_64-linux-gnu/libm.so
erfl                                              /usr/lib/gcc/x86_64-linux-gnu/4.9/../../../x86_64-linux-gnu/libm.so
erfl@@GLIBC_2.2.5                                 /usr/lib/gcc/x86_64-linux-gnu/4.9/../../../x86_64-linux-gnu/libm.so
erfl@GLIBC_2.2.5                                  /usr/lib/gcc/x86_64-linux-gnu/4.9/../../../x86_64-linux-gnu/libm.so
error                                             /lib/x86_64-linux-gnu/libc.so.6
error@@GLIBC_2.2.5                                /lib/x86_64-linux-gnu/libc.so.6
error@GLIBC_2.2.5                                 /lib/x86_64-linux-gnu/libc.so.6
error_at_line                                     /lib/x86_64-linux-gnu/libc.so.6
error_at_line@@GLIBC_2.2.5                        /lib/x86_64-linux-gnu/libc.so.6
error_at_line@GLIBC_2.2.5                         /lib/x86_64-linux-gnu/libc.so.6
euidaccess                                        /lib/x86_64-linux-gnu/libc.so.6
euidaccess@@GLIBC_2.2.5                           /lib/x86_64-linux-gnu/libc.so.6
euidaccess@GLIBC_2.2.5                            /lib/x86_64-linux-gnu/libc.so.6
execve                                            /lib/x86_64-linux-gnu/libc.so.6
execve@@GLIBC_2.2.5                               /lib/x86_64-linux-gnu/libc.so.6
execve@GLIBC_2.2.5                                /lib/x86_64-linux-gnu/libc.so.6
execvpe                                           /lib/x86_64-linux-gnu/libc.so.6
execvpe@@GLIBC_2.11                               /lib/x86_64-linux-gnu/libc.so.6
execvpe@GLIBC_2.11                                /lib/x86_64-linux-gnu/libc.so.6
exp                                               /usr/lib/gcc/x86_64-linux-gnu/4.9/../../../x86_64-linux-gnu/libm.so
exp10                                             /usr/lib/gcc/x86_64-linux-gnu/4.9/../../../x86_64-linux-gnu/libm.so
exp10@@GLIBC_2.2.5                                /usr/lib/gcc/x86_64-linux-gnu/4.9/../../../x86_64-linux-gnu/libm.so
exp10@GLIBC_2.2.5                                 /usr/lib/gcc/x86_64-linux-gnu/4.9/../../../x86_64-linux-gnu/libm.so
exp10f                                            /usr/lib/gcc/x86_64-linux-gnu/4.9/../../../x86_64-linux-gnu/libm.so
exp10f@@GLIBC_2.2.5                               /usr/lib/gcc/x86_64-linux-gnu/4.9/../../../x86_64-linux-gnu/libm.so
exp10f@GLIBC_2.2.5                                /usr/lib/gcc/x86_64-linux-gnu/4.9/../../../x86_64-linux-gnu/libm.so
exp10l                                            /usr/lib/gcc/x86_64-linux-gnu/4.9/../../../x86_64-linux-gnu/libm.so
exp10l@@GLIBC_2.2.5                               /usr/lib/gcc/x86_64-linux-gnu/4.9/../../../x86_64-linux-gnu/libm.so
exp10l@GLIBC_2.2.5                                /usr/lib/gcc/x86_64-linux-gnu/4.9/../../../x86_64-linux-gnu/libm.so
exp2                                              /usr/lib/gcc/x86_64-linux-gnu/4.9/../../../x86_64-linux-gnu/libm.so
exp2@@GLIBC_2.2.5                                 /usr/lib/gcc/x86_64-linux-gnu/4.9/../../../x86_64-linux-gnu/libm.so
exp2@GLIBC_2.2.5                                  /usr/lib/gcc/x86_64-linux-gnu/4.9/../../../x86_64-linux-gnu/libm.so
exp2f                                             /usr/lib/gcc/x86_64-linux-gnu/4.9/../../../x86_64-linux-gnu/libm.so
exp2f@@GLIBC_2.2.5                                /usr/lib/gcc/x86_64-linux-gnu/4.9/../../../x86_64-linux-gnu/libm.so
exp2f@GLIBC_2.2.5                                 /usr/lib/gcc/x86_64-linux-gnu/4.9/../../../x86_64-linux-gnu/libm.so
exp2l                                             /usr/lib/gcc/x86_64-linux-gnu/4.9/../../../x86_64-linux-gnu/libm.so
exp2l@@GLIBC_2.2.5                                /usr/lib/gcc/x86_64-linux-gnu/4.9/../../../x86_64-linux-gnu/libm.so
exp2l@GLIBC_2.2.5                                 /usr/lib/gcc/x86_64-linux-gnu/4.9/../../../x86_64-linux-gnu/libm.so
exp@@GLIBC_2.2.5                                  /usr/lib/gcc/x86_64-linux-gnu/4.9/../../../x86_64-linux-gnu/libm.so
exp@GLIBC_2.2.5                                   /usr/lib/gcc/x86_64-linux-gnu/4.9/../../../x86_64-linux-gnu/libm.so
expf                                              /usr/lib/gcc/x86_64-linux-gnu/4.9/../../../x86_64-linux-gnu/libm.so
expf@@GLIBC_2.2.5                                 /usr/lib/gcc/x86_64-linux-gnu/4.9/../../../x86_64-linux-gnu/libm.so
expf@GLIBC_2.2.5                                  /usr/lib/gcc/x86_64-linux-gnu/4.9/../../../x86_64-linux-gnu/libm.so
expl                                              /usr/lib/gcc/x86_64-linux-gnu/4.9/../../../x86_64-linux-gnu/libm.so
expl@@GLIBC_2.2.5                                 /usr/lib/gcc/x86_64-linux-gnu/4.9/../../../x86_64-linux-gnu/libm.so
expl@GLIBC_2.2.5                                  /usr/lib/gcc/x86_64-linux-gnu/4.9/../../../x86_64-linux-gnu/libm.so
expm1                                             /usr/lib/gcc/x86_64-linux-gnu/4.9/../../../x86_64-linux-gnu/libm.so
expm1@@GLIBC_2.2.5                                /usr/lib/gcc/x86_64-linux-gnu/4.9/../../../x86_64-linux-gnu/libm.so
expm1@GLIBC_2.2.5                                 /usr/lib/gcc/x86_64-linux-gnu/4.9/../../../x86_64-linux-gnu/libm.so
expm1f                                            /usr/lib/gcc/x86_64-linux-gnu/4.9/../../../x86_64-linux-gnu/libm.so
expm1f@@GLIBC_2.2.5                               /usr/lib/gcc/x86_64-linux-gnu/4.9/../../../x86_64-linux-gnu/libm.so
expm1f@GLIBC_2.2.5                                /usr/lib/gcc/x86_64-linux-gnu/4.9/../../../x86_64-linux-gnu/libm.so
expm1l                                            /usr/lib/gcc/x86_64-linux-gnu/4.9/../../../x86_64-linux-gnu/libm.so
expm1l@@GLIBC_2.2.5                               /usr/lib/gcc/x86_64-linux-gnu/4.9/../../../x86_64-linux-gnu/libm.so
expm1l@GLIBC_2.2.5                                /usr/lib/gcc/x86_64-linux-gnu/4.9/../../../x86_64-linux-gnu/libm.so
fabs                                              /usr/lib/gcc/x86_64-linux-gnu/4.9/../../../x86_64-linux-gnu/libm.so
fabs@@GLIBC_2.2.5                                 /usr/lib/gcc/x86_64-linux-gnu/4.9/../../../x86_64-linux-gnu/libm.so
fabs@GLIBC_2.2.5                                  /usr/lib/gcc/x86_64-linux-gnu/4.9/../../../x86_64-linux-gnu/libm.so
fabsf                                             /usr/lib/gcc/x86_64-linux-gnu/4.9/../../../x86_64-linux-gnu/libm.so
fabsf@@GLIBC_2.2.5                                /usr/lib/gcc/x86_64-linux-gnu/4.9/../../../x86_64-linux-gnu/libm.so
fabsf@GLIBC_2.2.5                                 /usr/lib/gcc/x86_64-linux-gnu/4.9/../../../x86_64-linux-gnu/libm.so
fabsl                                             /usr/lib/gcc/x86_64-linux-gnu/4.9/../../../x86_64-linux-gnu/libm.so
fabsl@@GLIBC_2.2.5                                /usr/lib/gcc/x86_64-linux-gnu/4.9/../../../x86_64-linux-gnu/libm.so
fabsl@GLIBC_2.2.5                                 /usr/lib/gcc/x86_64-linux-gnu/4.9/../../../x86_64-linux-gnu/libm.so
fchdir                                            /lib/x86_64-linux-gnu/libc.so.6
fchdir@@GLIBC_2.2.5                               /lib/x86_64-linux-gnu/libc.so.6
fchdir@GLIBC_2.2.5                                /lib/x86_64-linux-gnu/libc.so.6
fchmod                                            /lib/x86_64-linux-gnu/libc.so.6
fchmod@@GLIBC_2.2.5                               /lib/x86_64-linux-gnu/libc.so.6
fchmod@GLIBC_2.2.5                                /lib/x86_64-linux-gnu/libc.so.6
fchown                                            /lib/x86_64-linux-gnu/libc.so.6
fchown@@GLIBC_2.2.5                               /lib/x86_64-linux-gnu/libc.so.6
fchown@GLIBC_2.2.5                                /lib/x86_64-linux-gnu/libc.so.6
fclose                                            /lib/x86_64-linux-gnu/libc.so.6
                                                  parameters.o
fclose@@GLIBC_2.2.5                               /lib/x86_64-linux-gnu/libc.so.6
fclose@GLIBC_2.2.5                                /lib/x86_64-linux-gnu/libc.so.6
                                                  /lib/x86_64-linux-gnu/libpthread.so.0
                                                  /home/xyh/test/POFSwitch+DPDK+V1.0.5.3/dpdk-2.2.0/x86_64-native-linuxapp-gcc/lib/libdpdk.so
fcloseall                                         /lib/x86_64-linux-gnu/libc.so.6
fcloseall@@GLIBC_2.2.5                            /lib/x86_64-linux-gnu/libc.so.6
fcloseall@GLIBC_2.2.5                             /lib/x86_64-linux-gnu/libc.so.6
fcntl                                             /lib/x86_64-linux-gnu/libpthread.so.0
fcntl@@GLIBC_2.2.5                                /lib/x86_64-linux-gnu/libpthread.so.0
                                                  /lib/x86_64-linux-gnu/libc.so.6
fcntl@GLIBC_2.2.5                                 /lib/x86_64-linux-gnu/libpthread.so.0
                                                  /usr/lib/gcc/x86_64-linux-gnu/4.9/../../../x86_64-linux-gnu/librt.so
                                                  /home/xyh/test/POFSwitch+DPDK+V1.0.5.3/dpdk-2.2.0/x86_64-native-linuxapp-gcc/lib/libdpdk.so
fdim                                              /usr/lib/gcc/x86_64-linux-gnu/4.9/../../../x86_64-linux-gnu/libm.so
fdim@@GLIBC_2.2.5                                 /usr/lib/gcc/x86_64-linux-gnu/4.9/../../../x86_64-linux-gnu/libm.so
fdim@GLIBC_2.2.5                                  /usr/lib/gcc/x86_64-linux-gnu/4.9/../../../x86_64-linux-gnu/libm.so
fdimf                                             /usr/lib/gcc/x86_64-linux-gnu/4.9/../../../x86_64-linux-gnu/libm.so
fdimf@@GLIBC_2.2.5                                /usr/lib/gcc/x86_64-linux-gnu/4.9/../../../x86_64-linux-gnu/libm.so
fdimf@GLIBC_2.2.5                                 /usr/lib/gcc/x86_64-linux-gnu/4.9/../../../x86_64-linux-gnu/libm.so
fdiml                                             /usr/lib/gcc/x86_64-linux-gnu/4.9/../../../x86_64-linux-gnu/libm.so
fdiml@@GLIBC_2.2.5                                /usr/lib/gcc/x86_64-linux-gnu/4.9/../../../x86_64-linux-gnu/libm.so
fdiml@GLIBC_2.2.5                                 /usr/lib/gcc/x86_64-linux-gnu/4.9/../../../x86_64-linux-gnu/libm.so
fdir_conf                                         testpmd.o
                                                  config.o
                                                  cmdline.o
                                                  parameters.o
fdir_get_infos                                    config.o
                                                  cmdline.o
fdir_set_flex_mask                                config.o
                                                  cmdline.o
fdir_set_flex_payload                             config.o
                                                  cmdline.o
fdopendir                                         /lib/x86_64-linux-gnu/libc.so.6
fdopendir@@GLIBC_2.4                              /lib/x86_64-linux-gnu/libc.so.6
fdopendir@GLIBC_2.4                               /lib/x86_64-linux-gnu/libc.so.6
fegetenv                                          /usr/lib/gcc/x86_64-linux-gnu/4.9/../../../x86_64-linux-gnu/libm.so
fegetenv@@GLIBC_2.2.5                             /usr/lib/gcc/x86_64-linux-gnu/4.9/../../../x86_64-linux-gnu/libm.so
fegetenv@GLIBC_2.2.5                              /usr/lib/gcc/x86_64-linux-gnu/4.9/../../../x86_64-linux-gnu/libm.so
fegetround                                        /usr/lib/gcc/x86_64-linux-gnu/4.9/../../../x86_64-linux-gnu/libm.so
fegetround@@GLIBC_2.2.5                           /usr/lib/gcc/x86_64-linux-gnu/4.9/../../../x86_64-linux-gnu/libm.so
fegetround@GLIBC_2.2.5                            /usr/lib/gcc/x86_64-linux-gnu/4.9/../../../x86_64-linux-gnu/libm.so
feholdexcept                                      /usr/lib/gcc/x86_64-linux-gnu/4.9/../../../x86_64-linux-gnu/libm.so
feholdexcept@@GLIBC_2.2.5                         /usr/lib/gcc/x86_64-linux-gnu/4.9/../../../x86_64-linux-gnu/libm.so
feholdexcept@GLIBC_2.2.5                          /usr/lib/gcc/x86_64-linux-gnu/4.9/../../../x86_64-linux-gnu/libm.so
feof                                              /lib/x86_64-linux-gnu/libc.so.6
feof@@GLIBC_2.2.5                                 /lib/x86_64-linux-gnu/libc.so.6
feof@GLIBC_2.2.5                                  /lib/x86_64-linux-gnu/libc.so.6
                                                  /home/xyh/test/POFSwitch+DPDK+V1.0.5.3/dpdk-2.2.0/x86_64-native-linuxapp-gcc/lib/libdpdk.so
feraiseexcept                                     /usr/lib/gcc/x86_64-linux-gnu/4.9/../../../x86_64-linux-gnu/libm.so
feraiseexcept@@GLIBC_2.2.5                        /usr/lib/gcc/x86_64-linux-gnu/4.9/../../../x86_64-linux-gnu/libm.so
feraiseexcept@GLIBC_2.2.5                         /usr/lib/gcc/x86_64-linux-gnu/4.9/../../../x86_64-linux-gnu/libm.so
ferror                                            /lib/x86_64-linux-gnu/libc.so.6
ferror@@GLIBC_2.2.5                               /lib/x86_64-linux-gnu/libc.so.6
ferror@GLIBC_2.2.5                                /lib/x86_64-linux-gnu/libc.so.6
fesetenv                                          /usr/lib/gcc/x86_64-linux-gnu/4.9/../../../x86_64-linux-gnu/libm.so
fesetenv@@GLIBC_2.2.5                             /usr/lib/gcc/x86_64-linux-gnu/4.9/../../../x86_64-linux-gnu/libm.so
fesetenv@GLIBC_2.2.5                              /usr/lib/gcc/x86_64-linux-gnu/4.9/../../../x86_64-linux-gnu/libm.so
fesetround                                        /usr/lib/gcc/x86_64-linux-gnu/4.9/../../../x86_64-linux-gnu/libm.so
fesetround@@GLIBC_2.2.5                           /usr/lib/gcc/x86_64-linux-gnu/4.9/../../../x86_64-linux-gnu/libm.so
fesetround@GLIBC_2.2.5                            /usr/lib/gcc/x86_64-linux-gnu/4.9/../../../x86_64-linux-gnu/libm.so
fflush                                            /lib/x86_64-linux-gnu/libc.so.6
                                                  testpmd.o
fflush@@GLIBC_2.2.5                               /lib/x86_64-linux-gnu/libc.so.6
fflush@GLIBC_2.2.5                                /lib/x86_64-linux-gnu/libc.so.6
                                                  /home/xyh/test/POFSwitch+DPDK+V1.0.5.3/dpdk-2.2.0/x86_64-native-linuxapp-gcc/lib/libdpdk.so
ffsl                                              /lib/x86_64-linux-gnu/libc.so.6
ffsl@@GLIBC_2.2.5                                 /lib/x86_64-linux-gnu/libc.so.6
ffsl@GLIBC_2.2.5                                  /lib/x86_64-linux-gnu/libc.so.6
fgetc                                             /lib/x86_64-linux-gnu/libc.so.6
fgetc@@GLIBC_2.2.5                                /lib/x86_64-linux-gnu/libc.so.6
fgetc@GLIBC_2.2.5                                 /lib/x86_64-linux-gnu/libc.so.6
fgetc_unlocked                                    /lib/x86_64-linux-gnu/libc.so.6
fgetc_unlocked@@GLIBC_2.2.5                       /lib/x86_64-linux-gnu/libc.so.6
fgetc_unlocked@GLIBC_2.2.5                        /lib/x86_64-linux-gnu/libc.so.6
fgetgrent_r                                       /lib/x86_64-linux-gnu/libc.so.6
fgetgrent_r@@GLIBC_2.2.5                          /lib/x86_64-linux-gnu/libc.so.6
fgetgrent_r@GLIBC_2.2.5                           /lib/x86_64-linux-gnu/libc.so.6
fgetpwent_r                                       /lib/x86_64-linux-gnu/libc.so.6
fgetpwent_r@@GLIBC_2.2.5                          /lib/x86_64-linux-gnu/libc.so.6
fgetpwent_r@GLIBC_2.2.5                           /lib/x86_64-linux-gnu/libc.so.6
fgets                                             /lib/x86_64-linux-gnu/libc.so.6
                                                  parameters.o
fgets@@GLIBC_2.2.5                                /lib/x86_64-linux-gnu/libc.so.6
fgets@GLIBC_2.2.5                                 /lib/x86_64-linux-gnu/libc.so.6
                                                  /home/xyh/test/POFSwitch+DPDK+V1.0.5.3/dpdk-2.2.0/x86_64-native-linuxapp-gcc/lib/libdpdk.so
fgets_unlocked                                    /lib/x86_64-linux-gnu/libc.so.6
fgets_unlocked@@GLIBC_2.2.5                       /lib/x86_64-linux-gnu/libc.so.6
fgets_unlocked@GLIBC_2.2.5                        /lib/x86_64-linux-gnu/libc.so.6
fgetsgent_r                                       /lib/x86_64-linux-gnu/libc.so.6
fgetsgent_r@@GLIBC_2.10                           /lib/x86_64-linux-gnu/libc.so.6
fgetsgent_r@GLIBC_2.10                            /lib/x86_64-linux-gnu/libc.so.6
fgetspent_r                                       /lib/x86_64-linux-gnu/libc.so.6
fgetspent_r@@GLIBC_2.2.5                          /lib/x86_64-linux-gnu/libc.so.6
fgetspent_r@GLIBC_2.2.5                           /lib/x86_64-linux-gnu/libc.so.6
fgetwc                                            /lib/x86_64-linux-gnu/libc.so.6
fgetwc@@GLIBC_2.2.5                               /lib/x86_64-linux-gnu/libc.so.6
fgetwc@GLIBC_2.2.5                                /lib/x86_64-linux-gnu/libc.so.6
fgetwc_unlocked                                   /lib/x86_64-linux-gnu/libc.so.6
fgetwc_unlocked@@GLIBC_2.2.5                      /lib/x86_64-linux-gnu/libc.so.6
fgetwc_unlocked@GLIBC_2.2.5                       /lib/x86_64-linux-gnu/libc.so.6
fileno                                            /lib/x86_64-linux-gnu/libc.so.6
fileno@@GLIBC_2.2.5                               /lib/x86_64-linux-gnu/libc.so.6
fileno@GLIBC_2.2.5                                /lib/x86_64-linux-gnu/libc.so.6
                                                  /home/xyh/test/POFSwitch+DPDK+V1.0.5.3/dpdk-2.2.0/x86_64-native-linuxapp-gcc/lib/libdpdk.so
fileno_unlocked                                   /lib/x86_64-linux-gnu/libc.so.6
fileno_unlocked@@GLIBC_2.2.5                      /lib/x86_64-linux-gnu/libc.so.6
fileno_unlocked@GLIBC_2.2.5                       /lib/x86_64-linux-gnu/libc.so.6
find_next_port                                    testpmd.o
                                                  config.o
                                                  cmdline.o
                                                  parameters.o
finite                                            /usr/lib/gcc/x86_64-linux-gnu/4.9/../../../x86_64-linux-gnu/libm.so
finite@@GLIBC_2.2.5                               /usr/lib/gcc/x86_64-linux-gnu/4.9/../../../x86_64-linux-gnu/libm.so
                                                  /lib/x86_64-linux-gnu/libc.so.6
finite@GLIBC_2.2.5                                /usr/lib/gcc/x86_64-linux-gnu/4.9/../../../x86_64-linux-gnu/libm.so
finitef                                           /usr/lib/gcc/x86_64-linux-gnu/4.9/../../../x86_64-linux-gnu/libm.so
finitef@@GLIBC_2.2.5                              /usr/lib/gcc/x86_64-linux-gnu/4.9/../../../x86_64-linux-gnu/libm.so
                                                  /lib/x86_64-linux-gnu/libc.so.6
finitef@GLIBC_2.2.5                               /usr/lib/gcc/x86_64-linux-gnu/4.9/../../../x86_64-linux-gnu/libm.so
finitel                                           /usr/lib/gcc/x86_64-linux-gnu/4.9/../../../x86_64-linux-gnu/libm.so
finitel@@GLIBC_2.2.5                              /usr/lib/gcc/x86_64-linux-gnu/4.9/../../../x86_64-linux-gnu/libm.so
                                                  /lib/x86_64-linux-gnu/libc.so.6
finitel@GLIBC_2.2.5                               /usr/lib/gcc/x86_64-linux-gnu/4.9/../../../x86_64-linux-gnu/libm.so
flock                                             /lib/x86_64-linux-gnu/libc.so.6
flock@@GLIBC_2.2.5                                /lib/x86_64-linux-gnu/libc.so.6
flock@GLIBC_2.2.5                                 /lib/x86_64-linux-gnu/libc.so.6
                                                  /home/xyh/test/POFSwitch+DPDK+V1.0.5.3/dpdk-2.2.0/x86_64-native-linuxapp-gcc/lib/libdpdk.so
flockfile                                         /lib/x86_64-linux-gnu/libpthread.so.0
flockfile@@GLIBC_2.2.5                            /lib/x86_64-linux-gnu/libpthread.so.0
                                                  /lib/x86_64-linux-gnu/libc.so.6
flockfile@GLIBC_2.2.5                             /lib/x86_64-linux-gnu/libpthread.so.0
floor                                             /usr/lib/gcc/x86_64-linux-gnu/4.9/../../../x86_64-linux-gnu/libm.so
floor@@GLIBC_2.2.5                                /usr/lib/gcc/x86_64-linux-gnu/4.9/../../../x86_64-linux-gnu/libm.so
floor@GLIBC_2.2.5                                 /usr/lib/gcc/x86_64-linux-gnu/4.9/../../../x86_64-linux-gnu/libm.so
floorf                                            /usr/lib/gcc/x86_64-linux-gnu/4.9/../../../x86_64-linux-gnu/libm.so
floorf@@GLIBC_2.2.5                               /usr/lib/gcc/x86_64-linux-gnu/4.9/../../../x86_64-linux-gnu/libm.so
floorf@GLIBC_2.2.5                                /usr/lib/gcc/x86_64-linux-gnu/4.9/../../../x86_64-linux-gnu/libm.so
floorl                                            /usr/lib/gcc/x86_64-linux-gnu/4.9/../../../x86_64-linux-gnu/libm.so
floorl@@GLIBC_2.2.5                               /usr/lib/gcc/x86_64-linux-gnu/4.9/../../../x86_64-linux-gnu/libm.so
floorl@GLIBC_2.2.5                                /usr/lib/gcc/x86_64-linux-gnu/4.9/../../../x86_64-linux-gnu/libm.so
flow_gen_engine                                   flowgen.o
                                                  testpmd.o
fma                                               /usr/lib/gcc/x86_64-linux-gnu/4.9/../../../x86_64-linux-gnu/libm.so
fma@@GLIBC_2.2.5                                  /usr/lib/gcc/x86_64-linux-gnu/4.9/../../../x86_64-linux-gnu/libm.so
fma@GLIBC_2.2.5                                   /usr/lib/gcc/x86_64-linux-gnu/4.9/../../../x86_64-linux-gnu/libm.so
fmaf                                              /usr/lib/gcc/x86_64-linux-gnu/4.9/../../../x86_64-linux-gnu/libm.so
fmaf@@GLIBC_2.2.5                                 /usr/lib/gcc/x86_64-linux-gnu/4.9/../../../x86_64-linux-gnu/libm.so
fmaf@GLIBC_2.2.5                                  /usr/lib/gcc/x86_64-linux-gnu/4.9/../../../x86_64-linux-gnu/libm.so
fmal                                              /usr/lib/gcc/x86_64-linux-gnu/4.9/../../../x86_64-linux-gnu/libm.so
fmal@@GLIBC_2.2.5                                 /usr/lib/gcc/x86_64-linux-gnu/4.9/../../../x86_64-linux-gnu/libm.so
fmal@GLIBC_2.2.5                                  /usr/lib/gcc/x86_64-linux-gnu/4.9/../../../x86_64-linux-gnu/libm.so
fmax                                              /usr/lib/gcc/x86_64-linux-gnu/4.9/../../../x86_64-linux-gnu/libm.so
fmax@@GLIBC_2.2.5                                 /usr/lib/gcc/x86_64-linux-gnu/4.9/../../../x86_64-linux-gnu/libm.so
fmax@GLIBC_2.2.5                                  /usr/lib/gcc/x86_64-linux-gnu/4.9/../../../x86_64-linux-gnu/libm.so
fmaxf                                             /usr/lib/gcc/x86_64-linux-gnu/4.9/../../../x86_64-linux-gnu/libm.so
fmaxf@@GLIBC_2.2.5                                /usr/lib/gcc/x86_64-linux-gnu/4.9/../../../x86_64-linux-gnu/libm.so
fmaxf@GLIBC_2.2.5                                 /usr/lib/gcc/x86_64-linux-gnu/4.9/../../../x86_64-linux-gnu/libm.so
fmaxl                                             /usr/lib/gcc/x86_64-linux-gnu/4.9/../../../x86_64-linux-gnu/libm.so
fmaxl@@GLIBC_2.2.5                                /usr/lib/gcc/x86_64-linux-gnu/4.9/../../../x86_64-linux-gnu/libm.so
fmaxl@GLIBC_2.2.5                                 /usr/lib/gcc/x86_64-linux-gnu/4.9/../../../x86_64-linux-gnu/libm.so
fmin                                              /usr/lib/gcc/x86_64-linux-gnu/4.9/../../../x86_64-linux-gnu/libm.so
fmin@@GLIBC_2.2.5                                 /usr/lib/gcc/x86_64-linux-gnu/4.9/../../../x86_64-linux-gnu/libm.so
fmin@GLIBC_2.2.5                                  /usr/lib/gcc/x86_64-linux-gnu/4.9/../../../x86_64-linux-gnu/libm.so
fminf                                             /usr/lib/gcc/x86_64-linux-gnu/4.9/../../../x86_64-linux-gnu/libm.so
fminf@@GLIBC_2.2.5                                /usr/lib/gcc/x86_64-linux-gnu/4.9/../../../x86_64-linux-gnu/libm.so
fminf@GLIBC_2.2.5                                 /usr/lib/gcc/x86_64-linux-gnu/4.9/../../../x86_64-linux-gnu/libm.so
fminl                                             /usr/lib/gcc/x86_64-linux-gnu/4.9/../../../x86_64-linux-gnu/libm.so
fminl@@GLIBC_2.2.5                                /usr/lib/gcc/x86_64-linux-gnu/4.9/../../../x86_64-linux-gnu/libm.so
fminl@GLIBC_2.2.5                                 /usr/lib/gcc/x86_64-linux-gnu/4.9/../../../x86_64-linux-gnu/libm.so
fmod                                              /usr/lib/gcc/x86_64-linux-gnu/4.9/../../../x86_64-linux-gnu/libm.so
fmod@@GLIBC_2.2.5                                 /usr/lib/gcc/x86_64-linux-gnu/4.9/../../../x86_64-linux-gnu/libm.so
fmod@GLIBC_2.2.5                                  /usr/lib/gcc/x86_64-linux-gnu/4.9/../../../x86_64-linux-gnu/libm.so
fmodf                                             /usr/lib/gcc/x86_64-linux-gnu/4.9/../../../x86_64-linux-gnu/libm.so
fmodf@@GLIBC_2.2.5                                /usr/lib/gcc/x86_64-linux-gnu/4.9/../../../x86_64-linux-gnu/libm.so
fmodf@GLIBC_2.2.5                                 /usr/lib/gcc/x86_64-linux-gnu/4.9/../../../x86_64-linux-gnu/libm.so
fmodl                                             /usr/lib/gcc/x86_64-linux-gnu/4.9/../../../x86_64-linux-gnu/libm.so
fmodl@@GLIBC_2.2.5                                /usr/lib/gcc/x86_64-linux-gnu/4.9/../../../x86_64-linux-gnu/libm.so
fmodl@GLIBC_2.2.5                                 /usr/lib/gcc/x86_64-linux-gnu/4.9/../../../x86_64-linux-gnu/libm.so
fopen                                             /lib/x86_64-linux-gnu/libc.so.6
                                                  parameters.o
fopen64                                           /lib/x86_64-linux-gnu/libc.so.6
fopen64@@GLIBC_2.2.5                              /lib/x86_64-linux-gnu/libc.so.6
fopen64@GLIBC_2.2.5                               /lib/x86_64-linux-gnu/libc.so.6
                                                  /home/xyh/test/POFSwitch+DPDK+V1.0.5.3/dpdk-2.2.0/x86_64-native-linuxapp-gcc/lib/libdpdk.so
fopen@@GLIBC_2.2.5                                /lib/x86_64-linux-gnu/libc.so.6
fopen@GLIBC_2.2.5                                 /lib/x86_64-linux-gnu/libc.so.6
                                                  /lib/x86_64-linux-gnu/libpthread.so.0
                                                  /home/xyh/test/POFSwitch+DPDK+V1.0.5.3/dpdk-2.2.0/x86_64-native-linuxapp-gcc/lib/libdpdk.so
fpathconf                                         /lib/x86_64-linux-gnu/libc.so.6
fpathconf@@GLIBC_2.2.5                            /lib/x86_64-linux-gnu/libc.so.6
fpathconf@GLIBC_2.2.5                             /lib/x86_64-linux-gnu/libc.so.6
fputs                                             /lib/x86_64-linux-gnu/libc.so.6
fputs@@GLIBC_2.2.5                                /lib/x86_64-linux-gnu/libc.so.6
fputs@GLIBC_2.2.5                                 /lib/x86_64-linux-gnu/libc.so.6
                                                  /usr/lib/gcc/x86_64-linux-gnu/4.9/../../../x86_64-linux-gnu/libm.so
                                                  /home/xyh/test/POFSwitch+DPDK+V1.0.5.3/dpdk-2.2.0/x86_64-native-linuxapp-gcc/lib/libdpdk.so
fread                                             /lib/x86_64-linux-gnu/libc.so.6
fread@@GLIBC_2.2.5                                /lib/x86_64-linux-gnu/libc.so.6
fread@GLIBC_2.2.5                                 /lib/x86_64-linux-gnu/libc.so.6
fread_unlocked                                    /lib/x86_64-linux-gnu/libc.so.6
fread_unlocked@@GLIBC_2.2.5                       /lib/x86_64-linux-gnu/libc.so.6
fread_unlocked@GLIBC_2.2.5                        /lib/x86_64-linux-gnu/libc.so.6
free                                              /lib/x86_64-linux-gnu/libc.so.6
                                                  mempool_anon.o
                                                  config.o
free@@GLIBC_2.2.5                                 /lib/x86_64-linux-gnu/libc.so.6
                                                  /lib/x86_64-linux-gnu/ld-linux-x86-64.so.2
free@GLIBC_2.2.5                                  /lib/x86_64-linux-gnu/libc.so.6
                                                  /lib/x86_64-linux-gnu/libpthread.so.0
                                                  /usr/lib/gcc/x86_64-linux-gnu/4.9/../../../x86_64-linux-gnu/libdl.so
                                                  /usr/lib/gcc/x86_64-linux-gnu/4.9/libgcc_s.so
                                                  /usr/lib/gcc/x86_64-linux-gnu/4.9/../../../x86_64-linux-gnu/librt.so
                                                  /home/xyh/test/POFSwitch+DPDK+V1.0.5.3/dpdk-2.2.0/x86_64-native-linuxapp-gcc/lib/libdpdk.so
freeifaddrs                                       /lib/x86_64-linux-gnu/libc.so.6
freeifaddrs@@GLIBC_2.3                            /lib/x86_64-linux-gnu/libc.so.6
freeifaddrs@GLIBC_2.3                             /lib/x86_64-linux-gnu/libc.so.6
freelocale                                        /lib/x86_64-linux-gnu/libc.so.6
freelocale@@GLIBC_2.3                             /lib/x86_64-linux-gnu/libc.so.6
freelocale@GLIBC_2.3                              /lib/x86_64-linux-gnu/libc.so.6
frexp                                             /usr/lib/gcc/x86_64-linux-gnu/4.9/../../../x86_64-linux-gnu/libm.so
frexp@@GLIBC_2.2.5                                /usr/lib/gcc/x86_64-linux-gnu/4.9/../../../x86_64-linux-gnu/libm.so
                                                  /lib/x86_64-linux-gnu/libc.so.6
frexp@GLIBC_2.2.5                                 /usr/lib/gcc/x86_64-linux-gnu/4.9/../../../x86_64-linux-gnu/libm.so
frexpf                                            /usr/lib/gcc/x86_64-linux-gnu/4.9/../../../x86_64-linux-gnu/libm.so
frexpf@@GLIBC_2.2.5                               /usr/lib/gcc/x86_64-linux-gnu/4.9/../../../x86_64-linux-gnu/libm.so
                                                  /lib/x86_64-linux-gnu/libc.so.6
frexpf@GLIBC_2.2.5                                /usr/lib/gcc/x86_64-linux-gnu/4.9/../../../x86_64-linux-gnu/libm.so
frexpl                                            /usr/lib/gcc/x86_64-linux-gnu/4.9/../../../x86_64-linux-gnu/libm.so
frexpl@@GLIBC_2.2.5                               /usr/lib/gcc/x86_64-linux-gnu/4.9/../../../x86_64-linux-gnu/libm.so
                                                  /lib/x86_64-linux-gnu/libc.so.6
frexpl@GLIBC_2.2.5                                /usr/lib/gcc/x86_64-linux-gnu/4.9/../../../x86_64-linux-gnu/libm.so
fseeko64                                          /lib/x86_64-linux-gnu/libc.so.6
fseeko64@@GLIBC_2.2.5                             /lib/x86_64-linux-gnu/libc.so.6
fseeko64@GLIBC_2.2.5                              /lib/x86_64-linux-gnu/libc.so.6
fstatfs                                           /lib/x86_64-linux-gnu/libc.so.6
fstatfs64                                         /lib/x86_64-linux-gnu/libc.so.6
fstatfs64@@GLIBC_2.2.5                            /lib/x86_64-linux-gnu/libc.so.6
fstatfs64@GLIBC_2.2.5                             /lib/x86_64-linux-gnu/libc.so.6
fstatfs@@GLIBC_2.2.5                              /lib/x86_64-linux-gnu/libc.so.6
fstatfs@GLIBC_2.2.5                               /lib/x86_64-linux-gnu/libc.so.6
fstatvfs64                                        /lib/x86_64-linux-gnu/libc.so.6
fstatvfs64@@GLIBC_2.2.5                           /lib/x86_64-linux-gnu/libc.so.6
fstatvfs64@GLIBC_2.2.5                            /lib/x86_64-linux-gnu/libc.so.6
fsync                                             /lib/x86_64-linux-gnu/libpthread.so.0
fsync@@GLIBC_2.2.5                                /lib/x86_64-linux-gnu/libpthread.so.0
                                                  /lib/x86_64-linux-gnu/libc.so.6
fsync@GLIBC_2.2.5                                 /lib/x86_64-linux-gnu/libpthread.so.0
                                                  /usr/lib/gcc/x86_64-linux-gnu/4.9/../../../x86_64-linux-gnu/librt.so
ftell                                             /lib/x86_64-linux-gnu/libc.so.6
ftell@@GLIBC_2.2.5                                /lib/x86_64-linux-gnu/libc.so.6
ftell@GLIBC_2.2.5                                 /lib/x86_64-linux-gnu/libc.so.6
ftello                                            /lib/x86_64-linux-gnu/libc.so.6
ftello64                                          /lib/x86_64-linux-gnu/libc.so.6
ftello64@@GLIBC_2.2.5                             /lib/x86_64-linux-gnu/libc.so.6
ftello64@GLIBC_2.2.5                              /lib/x86_64-linux-gnu/libc.so.6
ftello@@GLIBC_2.2.5                               /lib/x86_64-linux-gnu/libc.so.6
ftello@GLIBC_2.2.5                                /lib/x86_64-linux-gnu/libc.so.6
ftruncate                                         /lib/x86_64-linux-gnu/libc.so.6
ftruncate64                                       /lib/x86_64-linux-gnu/libc.so.6
ftruncate64@@GLIBC_2.2.5                          /lib/x86_64-linux-gnu/libc.so.6
ftruncate64@GLIBC_2.2.5                           /lib/x86_64-linux-gnu/libc.so.6
                                                  /home/xyh/test/POFSwitch+DPDK+V1.0.5.3/dpdk-2.2.0/x86_64-native-linuxapp-gcc/lib/libdpdk.so
ftruncate@@GLIBC_2.2.5                            /lib/x86_64-linux-gnu/libc.so.6
ftruncate@GLIBC_2.2.5                             /lib/x86_64-linux-gnu/libc.so.6
                                                  /home/xyh/test/POFSwitch+DPDK+V1.0.5.3/dpdk-2.2.0/x86_64-native-linuxapp-gcc/lib/libdpdk.so
ftrylockfile                                      /lib/x86_64-linux-gnu/libpthread.so.0
ftrylockfile@@GLIBC_2.2.5                         /lib/x86_64-linux-gnu/libpthread.so.0
                                                  /lib/x86_64-linux-gnu/libc.so.6
ftrylockfile@GLIBC_2.2.5                          /lib/x86_64-linux-gnu/libpthread.so.0
ftw64                                             /lib/x86_64-linux-gnu/libc.so.6
ftw64@@GLIBC_2.2.5                                /lib/x86_64-linux-gnu/libc.so.6
ftw64@GLIBC_2.2.5                                 /lib/x86_64-linux-gnu/libc.so.6
funlockfile                                       /lib/x86_64-linux-gnu/libpthread.so.0
funlockfile@@GLIBC_2.2.5                          /lib/x86_64-linux-gnu/libpthread.so.0
                                                  /lib/x86_64-linux-gnu/libc.so.6
funlockfile@GLIBC_2.2.5                           /lib/x86_64-linux-gnu/libpthread.so.0
futimes                                           /lib/x86_64-linux-gnu/libc.so.6
futimes@@GLIBC_2.3                                /lib/x86_64-linux-gnu/libc.so.6
futimes@GLIBC_2.3                                 /lib/x86_64-linux-gnu/libc.so.6
fwd_config_display                                config.o
                                                  cmdline.o
fwd_config_setup                                  config.o
                                                  testpmd.o
fwd_engines                                       testpmd.o
                                                  config.o
fwd_lcores                                        testpmd.o
                                                  csumonly.o
                                                  txonly.o
                                                  flowgen.o
                                                  config.o
fwd_lcores_config_display                         config.o
                                                  cmdline.o
fwd_lcores_cpuids                                 testpmd.o
                                                  csumonly.o
                                                  txonly.o
                                                  flowgen.o
                                                  config.o
fwd_ports_ids                                     testpmd.o
                                                  config.o
fwd_streams                                       testpmd.o
                                                  config.o
fwprintf                                          /lib/x86_64-linux-gnu/libc.so.6
fwprintf@@GLIBC_2.2.5                             /lib/x86_64-linux-gnu/libc.so.6
fwprintf@GLIBC_2.2.5                              /lib/x86_64-linux-gnu/libc.so.6
fwrite                                            /lib/x86_64-linux-gnu/libc.so.6
fwrite@@GLIBC_2.2.5                               /lib/x86_64-linux-gnu/libc.so.6
fwrite@GLIBC_2.2.5                                /lib/x86_64-linux-gnu/libc.so.6
                                                  /usr/lib/gcc/x86_64-linux-gnu/4.9/../../../x86_64-linux-gnu/libm.so
                                                  /home/xyh/test/POFSwitch+DPDK+V1.0.5.3/dpdk-2.2.0/x86_64-native-linuxapp-gcc/lib/libdpdk.so
gamma                                             /usr/lib/gcc/x86_64-linux-gnu/4.9/../../../x86_64-linux-gnu/libm.so
gamma@@GLIBC_2.2.5                                /usr/lib/gcc/x86_64-linux-gnu/4.9/../../../x86_64-linux-gnu/libm.so
gamma@GLIBC_2.2.5                                 /usr/lib/gcc/x86_64-linux-gnu/4.9/../../../x86_64-linux-gnu/libm.so
gammaf                                            /usr/lib/gcc/x86_64-linux-gnu/4.9/../../../x86_64-linux-gnu/libm.so
gammaf@@GLIBC_2.2.5                               /usr/lib/gcc/x86_64-linux-gnu/4.9/../../../x86_64-linux-gnu/libm.so
gammaf@GLIBC_2.2.5                                /usr/lib/gcc/x86_64-linux-gnu/4.9/../../../x86_64-linux-gnu/libm.so
gammal                                            /usr/lib/gcc/x86_64-linux-gnu/4.9/../../../x86_64-linux-gnu/libm.so
gammal@@GLIBC_2.2.5                               /usr/lib/gcc/x86_64-linux-gnu/4.9/../../../x86_64-linux-gnu/libm.so
gammal@GLIBC_2.2.5                                /usr/lib/gcc/x86_64-linux-gnu/4.9/../../../x86_64-linux-gnu/libm.so
get_avphys_pages                                  /lib/x86_64-linux-gnu/libc.so.6
get_avphys_pages@@GLIBC_2.2.5                     /lib/x86_64-linux-gnu/libc.so.6
get_avphys_pages@GLIBC_2.2.5                      /lib/x86_64-linux-gnu/libc.so.6
get_nprocs                                        /lib/x86_64-linux-gnu/libc.so.6
get_nprocs@@GLIBC_2.2.5                           /lib/x86_64-linux-gnu/libc.so.6
get_nprocs@GLIBC_2.2.5                            /lib/x86_64-linux-gnu/libc.so.6
get_nprocs_conf                                   /lib/x86_64-linux-gnu/libc.so.6
get_nprocs_conf@@GLIBC_2.2.5                      /lib/x86_64-linux-gnu/libc.so.6
get_nprocs_conf@GLIBC_2.2.5                       /lib/x86_64-linux-gnu/libc.so.6
get_phys_pages                                    /lib/x86_64-linux-gnu/libc.so.6
get_phys_pages@@GLIBC_2.2.5                       /lib/x86_64-linux-gnu/libc.so.6
get_phys_pages@GLIBC_2.2.5                        /lib/x86_64-linux-gnu/libc.so.6
getauxval                                         /lib/x86_64-linux-gnu/libc.so.6
getauxval@@GLIBC_2.16                             /lib/x86_64-linux-gnu/libc.so.6
getauxval@GLIBC_2.16                              /lib/x86_64-linux-gnu/libc.so.6
getc                                              /lib/x86_64-linux-gnu/libc.so.6
getc@@GLIBC_2.2.5                                 /lib/x86_64-linux-gnu/libc.so.6
getc@GLIBC_2.2.5                                  /lib/x86_64-linux-gnu/libc.so.6
getc_unlocked                                     /lib/x86_64-linux-gnu/libc.so.6
getc_unlocked@@GLIBC_2.2.5                        /lib/x86_64-linux-gnu/libc.so.6
getc_unlocked@GLIBC_2.2.5                         /lib/x86_64-linux-gnu/libc.so.6
getcontext                                        /lib/x86_64-linux-gnu/libc.so.6
getcontext@@GLIBC_2.2.5                           /lib/x86_64-linux-gnu/libc.so.6
getcontext@GLIBC_2.2.5                            /lib/x86_64-linux-gnu/libc.so.6
getcwd                                            /lib/x86_64-linux-gnu/libc.so.6
getcwd@@GLIBC_2.2.5                               /lib/x86_64-linux-gnu/libc.so.6
getcwd@GLIBC_2.2.5                                /lib/x86_64-linux-gnu/libc.so.6
getdate_r                                         /lib/x86_64-linux-gnu/libc.so.6
getdate_r@@GLIBC_2.2.5                            /lib/x86_64-linux-gnu/libc.so.6
getdate_r@GLIBC_2.2.5                             /lib/x86_64-linux-gnu/libc.so.6
getdelim                                          /lib/x86_64-linux-gnu/libc.so.6
getdelim@@GLIBC_2.2.5                             /lib/x86_64-linux-gnu/libc.so.6
getdelim@GLIBC_2.2.5                              /lib/x86_64-linux-gnu/libc.so.6
                                                  /home/xyh/test/POFSwitch+DPDK+V1.0.5.3/dpdk-2.2.0/x86_64-native-linuxapp-gcc/lib/libdpdk.so
getdirentries64                                   /lib/x86_64-linux-gnu/libc.so.6
getdirentries64@@GLIBC_2.2.5                      /lib/x86_64-linux-gnu/libc.so.6
getdirentries64@GLIBC_2.2.5                       /lib/x86_64-linux-gnu/libc.so.6
getdtablesize                                     /lib/x86_64-linux-gnu/libc.so.6
getdtablesize@@GLIBC_2.2.5                        /lib/x86_64-linux-gnu/libc.so.6
getdtablesize@GLIBC_2.2.5                         /lib/x86_64-linux-gnu/libc.so.6
getegid                                           /lib/x86_64-linux-gnu/libc.so.6
getegid@@GLIBC_2.2.5                              /lib/x86_64-linux-gnu/libc.so.6
getegid@GLIBC_2.2.5                               /lib/x86_64-linux-gnu/libc.so.6
geteuid                                           /lib/x86_64-linux-gnu/libc.so.6
geteuid@@GLIBC_2.2.5                              /lib/x86_64-linux-gnu/libc.so.6
geteuid@GLIBC_2.2.5                               /lib/x86_64-linux-gnu/libc.so.6
getgid                                            /lib/x86_64-linux-gnu/libc.so.6
getgid@@GLIBC_2.2.5                               /lib/x86_64-linux-gnu/libc.so.6
getgid@GLIBC_2.2.5                                /lib/x86_64-linux-gnu/libc.so.6
getgroups                                         /lib/x86_64-linux-gnu/libc.so.6
getgroups@@GLIBC_2.2.5                            /lib/x86_64-linux-gnu/libc.so.6
getgroups@GLIBC_2.2.5                             /lib/x86_64-linux-gnu/libc.so.6
gethostname                                       /lib/x86_64-linux-gnu/libc.so.6
gethostname@@GLIBC_2.2.5                          /lib/x86_64-linux-gnu/libc.so.6
gethostname@GLIBC_2.2.5                           /lib/x86_64-linux-gnu/libc.so.6
getifaddrs                                        /lib/x86_64-linux-gnu/libc.so.6
getifaddrs@@GLIBC_2.3                             /lib/x86_64-linux-gnu/libc.so.6
getifaddrs@GLIBC_2.3                              /lib/x86_64-linux-gnu/libc.so.6
getitimer                                         /lib/x86_64-linux-gnu/libc.so.6
getitimer@@GLIBC_2.2.5                            /lib/x86_64-linux-gnu/libc.so.6
getitimer@GLIBC_2.2.5                             /lib/x86_64-linux-gnu/libc.so.6
getline                                           /lib/x86_64-linux-gnu/libc.so.6
getline@@GLIBC_2.2.5                              /lib/x86_64-linux-gnu/libc.so.6
getline@GLIBC_2.2.5                               /lib/x86_64-linux-gnu/libc.so.6
getmntent_r                                       /lib/x86_64-linux-gnu/libc.so.6
getmntent_r@@GLIBC_2.2.5                          /lib/x86_64-linux-gnu/libc.so.6
getmntent_r@GLIBC_2.2.5                           /lib/x86_64-linux-gnu/libc.so.6
getnetgrent_r                                     /lib/x86_64-linux-gnu/libc.so.6
getnetgrent_r@@GLIBC_2.2.5                        /lib/x86_64-linux-gnu/libc.so.6
getnetgrent_r@GLIBC_2.2.5                         /lib/x86_64-linux-gnu/libc.so.6
getopt_long                                       /lib/x86_64-linux-gnu/libc.so.6
                                                  parameters.o
getopt_long@@GLIBC_2.2.5                          /lib/x86_64-linux-gnu/libc.so.6
getopt_long@GLIBC_2.2.5                           /lib/x86_64-linux-gnu/libc.so.6
                                                  /home/xyh/test/POFSwitch+DPDK+V1.0.5.3/dpdk-2.2.0/x86_64-native-linuxapp-gcc/lib/libdpdk.so
getpagesize                                       /lib/x86_64-linux-gnu/libc.so.6
                                                  mempool_anon.o
getpagesize@@GLIBC_2.2.5                          /lib/x86_64-linux-gnu/libc.so.6
getpagesize@GLIBC_2.2.5                           /lib/x86_64-linux-gnu/libc.so.6
                                                  /home/xyh/test/POFSwitch+DPDK+V1.0.5.3/dpdk-2.2.0/x86_64-native-linuxapp-gcc/lib/libdpdk.so
getpeername                                       /lib/x86_64-linux-gnu/libc.so.6
getpeername@@GLIBC_2.2.5                          /lib/x86_64-linux-gnu/libc.so.6
getpeername@GLIBC_2.2.5                           /lib/x86_64-linux-gnu/libc.so.6
getpgid                                           /lib/x86_64-linux-gnu/libc.so.6
getpgid@@GLIBC_2.2.5                              /lib/x86_64-linux-gnu/libc.so.6
getpgid@GLIBC_2.2.5                               /lib/x86_64-linux-gnu/libc.so.6
getppid                                           /lib/x86_64-linux-gnu/libc.so.6
getppid@@GLIBC_2.2.5                              /lib/x86_64-linux-gnu/libc.so.6
getppid@GLIBC_2.2.5                               /lib/x86_64-linux-gnu/libc.so.6
getpt                                             /lib/x86_64-linux-gnu/libc.so.6
getpt@@GLIBC_2.2.5                                /lib/x86_64-linux-gnu/libc.so.6
getpt@GLIBC_2.2.5                                 /lib/x86_64-linux-gnu/libc.so.6
getpw                                             /lib/x86_64-linux-gnu/libc.so.6
getpw@@GLIBC_2.2.5                                /lib/x86_64-linux-gnu/libc.so.6
getpw@GLIBC_2.2.5                                 /lib/x86_64-linux-gnu/libc.so.6
getrlimit                                         /lib/x86_64-linux-gnu/libc.so.6
getrlimit64                                       /lib/x86_64-linux-gnu/libc.so.6
getrlimit64@@GLIBC_2.2.5                          /lib/x86_64-linux-gnu/libc.so.6
getrlimit64@GLIBC_2.2.5                           /lib/x86_64-linux-gnu/libc.so.6
getrlimit@@GLIBC_2.2.5                            /lib/x86_64-linux-gnu/libc.so.6
getrlimit@GLIBC_2.2.5                             /lib/x86_64-linux-gnu/libc.so.6
                                                  /lib/x86_64-linux-gnu/libpthread.so.0
getrusage                                         /lib/x86_64-linux-gnu/libc.so.6
getrusage@@GLIBC_2.2.5                            /lib/x86_64-linux-gnu/libc.so.6
getrusage@GLIBC_2.2.5                             /lib/x86_64-linux-gnu/libc.so.6
gets                                              /lib/x86_64-linux-gnu/libc.so.6
gets@@GLIBC_2.2.5                                 /lib/x86_64-linux-gnu/libc.so.6
gets@GLIBC_2.2.5                                  /lib/x86_64-linux-gnu/libc.so.6
getsockname                                       /lib/x86_64-linux-gnu/libc.so.6
getsockname@@GLIBC_2.2.5                          /lib/x86_64-linux-gnu/libc.so.6
getsockname@GLIBC_2.2.5                           /lib/x86_64-linux-gnu/libc.so.6
getsockopt                                        /lib/x86_64-linux-gnu/libc.so.6
getsockopt@@GLIBC_2.2.5                           /lib/x86_64-linux-gnu/libc.so.6
getsockopt@GLIBC_2.2.5                            /lib/x86_64-linux-gnu/libc.so.6
gettext                                           /lib/x86_64-linux-gnu/libc.so.6
gettext@@GLIBC_2.2.5                              /lib/x86_64-linux-gnu/libc.so.6
gettext@GLIBC_2.2.5                               /lib/x86_64-linux-gnu/libc.so.6
gettimeofday                                      /lib/x86_64-linux-gnu/libc.so.6
gettimeofday@@GLIBC_2.2.5                         /lib/x86_64-linux-gnu/libc.so.6
gettimeofday@GLIBC_2.2.5                          /lib/x86_64-linux-gnu/libc.so.6
getuid                                            /lib/x86_64-linux-gnu/libc.so.6
getuid@@GLIBC_2.2.5                               /lib/x86_64-linux-gnu/libc.so.6
getuid@GLIBC_2.2.5                                /lib/x86_64-linux-gnu/libc.so.6
                                                  /lib/x86_64-linux-gnu/libpthread.so.0
                                                  /usr/lib/gcc/x86_64-linux-gnu/4.9/../../../x86_64-linux-gnu/librt.so
                                                  /home/xyh/test/POFSwitch+DPDK+V1.0.5.3/dpdk-2.2.0/x86_64-native-linuxapp-gcc/lib/libdpdk.so
getutent                                          /lib/x86_64-linux-gnu/libc.so.6
getutent@@GLIBC_2.2.5                             /lib/x86_64-linux-gnu/libc.so.6
getutent@GLIBC_2.2.5                              /lib/x86_64-linux-gnu/libc.so.6
getutent_r                                        /lib/x86_64-linux-gnu/libc.so.6
getutent_r@@GLIBC_2.2.5                           /lib/x86_64-linux-gnu/libc.so.6
getutent_r@GLIBC_2.2.5                            /lib/x86_64-linux-gnu/libc.so.6
getutid                                           /lib/x86_64-linux-gnu/libc.so.6
getutid@@GLIBC_2.2.5                              /lib/x86_64-linux-gnu/libc.so.6
getutid@GLIBC_2.2.5                               /lib/x86_64-linux-gnu/libc.so.6
getutid_r                                         /lib/x86_64-linux-gnu/libc.so.6
getutid_r@@GLIBC_2.2.5                            /lib/x86_64-linux-gnu/libc.so.6
getutid_r@GLIBC_2.2.5                             /lib/x86_64-linux-gnu/libc.so.6
getutline                                         /lib/x86_64-linux-gnu/libc.so.6
getutline@@GLIBC_2.2.5                            /lib/x86_64-linux-gnu/libc.so.6
getutline@GLIBC_2.2.5                             /lib/x86_64-linux-gnu/libc.so.6
getutline_r                                       /lib/x86_64-linux-gnu/libc.so.6
getutline_r@@GLIBC_2.2.5                          /lib/x86_64-linux-gnu/libc.so.6
getutline_r@GLIBC_2.2.5                           /lib/x86_64-linux-gnu/libc.so.6
getwc                                             /lib/x86_64-linux-gnu/libc.so.6
getwc@@GLIBC_2.2.5                                /lib/x86_64-linux-gnu/libc.so.6
getwc@GLIBC_2.2.5                                 /lib/x86_64-linux-gnu/libc.so.6
getwc_unlocked                                    /lib/x86_64-linux-gnu/libc.so.6
getwc_unlocked@@GLIBC_2.2.5                       /lib/x86_64-linux-gnu/libc.so.6
getwc_unlocked@GLIBC_2.2.5                        /lib/x86_64-linux-gnu/libc.so.6
glob64                                            /lib/x86_64-linux-gnu/libc.so.6
glob64@@GLIBC_2.2.5                               /lib/x86_64-linux-gnu/libc.so.6
glob64@GLIBC_2.2.5                                /lib/x86_64-linux-gnu/libc.so.6
glob_pattern_p                                    /lib/x86_64-linux-gnu/libc.so.6
glob_pattern_p@@GLIBC_2.2.5                       /lib/x86_64-linux-gnu/libc.so.6
glob_pattern_p@GLIBC_2.2.5                        /lib/x86_64-linux-gnu/libc.so.6
globfree64                                        /lib/x86_64-linux-gnu/libc.so.6
globfree64@@GLIBC_2.2.5                           /lib/x86_64-linux-gnu/libc.so.6
globfree64@GLIBC_2.2.5                            /lib/x86_64-linux-gnu/libc.so.6
gmtime_r                                          /lib/x86_64-linux-gnu/libc.so.6
gmtime_r@@GLIBC_2.2.5                             /lib/x86_64-linux-gnu/libc.so.6
gmtime_r@GLIBC_2.2.5                              /lib/x86_64-linux-gnu/libc.so.6
gnu_get_libc_release                              /lib/x86_64-linux-gnu/libc.so.6
gnu_get_libc_release@@GLIBC_2.2.5                 /lib/x86_64-linux-gnu/libc.so.6
gnu_get_libc_release@GLIBC_2.2.5                  /lib/x86_64-linux-gnu/libc.so.6
gnu_get_libc_version                              /lib/x86_64-linux-gnu/libc.so.6
gnu_get_libc_version@@GLIBC_2.2.5                 /lib/x86_64-linux-gnu/libc.so.6
gnu_get_libc_version@GLIBC_2.2.5                  /lib/x86_64-linux-gnu/libc.so.6
group_member                                      /lib/x86_64-linux-gnu/libc.so.6
group_member@@GLIBC_2.2.5                         /lib/x86_64-linux-gnu/libc.so.6
group_member@GLIBC_2.2.5                          /lib/x86_64-linux-gnu/libc.so.6
gsignal                                           /lib/x86_64-linux-gnu/libc.so.6
gsignal@@GLIBC_2.2.5                              /lib/x86_64-linux-gnu/libc.so.6
gsignal@GLIBC_2.2.5                               /lib/x86_64-linux-gnu/libc.so.6
hasmntopt                                         /lib/x86_64-linux-gnu/libc.so.6
hasmntopt@@GLIBC_2.2.5                            /lib/x86_64-linux-gnu/libc.so.6
hasmntopt@GLIBC_2.2.5                             /lib/x86_64-linux-gnu/libc.so.6
hdestroy                                          /lib/x86_64-linux-gnu/libc.so.6
hdestroy@@GLIBC_2.2.5                             /lib/x86_64-linux-gnu/libc.so.6
hdestroy@GLIBC_2.2.5                              /lib/x86_64-linux-gnu/libc.so.6
hypot                                             /usr/lib/gcc/x86_64-linux-gnu/4.9/../../../x86_64-linux-gnu/libm.so
hypot@@GLIBC_2.2.5                                /usr/lib/gcc/x86_64-linux-gnu/4.9/../../../x86_64-linux-gnu/libm.so
hypot@GLIBC_2.2.5                                 /usr/lib/gcc/x86_64-linux-gnu/4.9/../../../x86_64-linux-gnu/libm.so
hypotf                                            /usr/lib/gcc/x86_64-linux-gnu/4.9/../../../x86_64-linux-gnu/libm.so
hypotf@@GLIBC_2.2.5                               /usr/lib/gcc/x86_64-linux-gnu/4.9/../../../x86_64-linux-gnu/libm.so
hypotf@GLIBC_2.2.5                                /usr/lib/gcc/x86_64-linux-gnu/4.9/../../../x86_64-linux-gnu/libm.so
hypotl                                            /usr/lib/gcc/x86_64-linux-gnu/4.9/../../../x86_64-linux-gnu/libm.so
hypotl@@GLIBC_2.2.5                               /usr/lib/gcc/x86_64-linux-gnu/4.9/../../../x86_64-linux-gnu/libm.so
hypotl@GLIBC_2.2.5                                /usr/lib/gcc/x86_64-linux-gnu/4.9/../../../x86_64-linux-gnu/libm.so
icmp_echo_engine                                  icmpecho.o
                                                  testpmd.o
if_freenameindex                                  /lib/x86_64-linux-gnu/libc.so.6
if_freenameindex@@GLIBC_2.2.5                     /lib/x86_64-linux-gnu/libc.so.6
if_freenameindex@GLIBC_2.2.5                      /lib/x86_64-linux-gnu/libc.so.6
if_indextoname                                    /lib/x86_64-linux-gnu/libc.so.6
if_indextoname@@GLIBC_2.2.5                       /lib/x86_64-linux-gnu/libc.so.6
if_indextoname@GLIBC_2.2.5                        /lib/x86_64-linux-gnu/libc.so.6
if_nameindex                                      /lib/x86_64-linux-gnu/libc.so.6
if_nameindex@@GLIBC_2.2.5                         /lib/x86_64-linux-gnu/libc.so.6
if_nameindex@GLIBC_2.2.5                          /lib/x86_64-linux-gnu/libc.so.6
if_nametoindex                                    /lib/x86_64-linux-gnu/libc.so.6
if_nametoindex@@GLIBC_2.2.5                       /lib/x86_64-linux-gnu/libc.so.6
if_nametoindex@GLIBC_2.2.5                        /lib/x86_64-linux-gnu/libc.so.6
ilogb                                             /usr/lib/gcc/x86_64-linux-gnu/4.9/../../../x86_64-linux-gnu/libm.so
ilogb@@GLIBC_2.2.5                                /usr/lib/gcc/x86_64-linux-gnu/4.9/../../../x86_64-linux-gnu/libm.so
ilogb@GLIBC_2.2.5                                 /usr/lib/gcc/x86_64-linux-gnu/4.9/../../../x86_64-linux-gnu/libm.so
ilogbf                                            /usr/lib/gcc/x86_64-linux-gnu/4.9/../../../x86_64-linux-gnu/libm.so
ilogbf@@GLIBC_2.2.5                               /usr/lib/gcc/x86_64-linux-gnu/4.9/../../../x86_64-linux-gnu/libm.so
ilogbf@GLIBC_2.2.5                                /usr/lib/gcc/x86_64-linux-gnu/4.9/../../../x86_64-linux-gnu/libm.so
ilogbl                                            /usr/lib/gcc/x86_64-linux-gnu/4.9/../../../x86_64-linux-gnu/libm.so
ilogbl@@GLIBC_2.2.5                               /usr/lib/gcc/x86_64-linux-gnu/4.9/../../../x86_64-linux-gnu/libm.so
ilogbl@GLIBC_2.2.5                                /usr/lib/gcc/x86_64-linux-gnu/4.9/../../../x86_64-linux-gnu/libm.so
imaxabs                                           /lib/x86_64-linux-gnu/libc.so.6
imaxabs@@GLIBC_2.2.5                              /lib/x86_64-linux-gnu/libc.so.6
imaxabs@GLIBC_2.2.5                               /lib/x86_64-linux-gnu/libc.so.6
imaxdiv                                           /lib/x86_64-linux-gnu/libc.so.6
imaxdiv@@GLIBC_2.2.5                              /lib/x86_64-linux-gnu/libc.so.6
imaxdiv@GLIBC_2.2.5                               /lib/x86_64-linux-gnu/libc.so.6
index                                             /lib/x86_64-linux-gnu/libc.so.6
index@@GLIBC_2.2.5                                /lib/x86_64-linux-gnu/libc.so.6
index@GLIBC_2.2.5                                 /lib/x86_64-linux-gnu/libc.so.6
                                                  /home/xyh/test/POFSwitch+DPDK+V1.0.5.3/dpdk-2.2.0/x86_64-native-linuxapp-gcc/lib/libdpdk.so
inet_addr                                         /lib/x86_64-linux-gnu/libc.so.6
inet_addr@@GLIBC_2.2.5                            /lib/x86_64-linux-gnu/libc.so.6
inet_addr@GLIBC_2.2.5                             /lib/x86_64-linux-gnu/libc.so.6
inet_aton                                         /lib/x86_64-linux-gnu/libc.so.6
inet_aton@@GLIBC_2.2.5                            /lib/x86_64-linux-gnu/libc.so.6
inet_aton@GLIBC_2.2.5                             /lib/x86_64-linux-gnu/libc.so.6
inet_makeaddr                                     /lib/x86_64-linux-gnu/libc.so.6
inet_makeaddr@@GLIBC_2.2.5                        /lib/x86_64-linux-gnu/libc.so.6
inet_makeaddr@GLIBC_2.2.5                         /lib/x86_64-linux-gnu/libc.so.6
inet_pton                                         /lib/x86_64-linux-gnu/libc.so.6
inet_pton@@GLIBC_2.2.5                            /lib/x86_64-linux-gnu/libc.so.6
inet_pton@GLIBC_2.2.5                             /lib/x86_64-linux-gnu/libc.so.6
init_fwd_streams                                  testpmd.o
                                                  config.o
init_port_config                                  testpmd.o
                                                  cmdline.o
init_port_dcb_config                              testpmd.o
                                                  cmdline.o
initstate                                         /lib/x86_64-linux-gnu/libc.so.6
initstate@@GLIBC_2.2.5                            /lib/x86_64-linux-gnu/libc.so.6
initstate@GLIBC_2.2.5                             /lib/x86_64-linux-gnu/libc.so.6
initstate_r                                       /lib/x86_64-linux-gnu/libc.so.6
initstate_r@@GLIBC_2.2.5                          /lib/x86_64-linux-gnu/libc.so.6
initstate_r@GLIBC_2.2.5                           /lib/x86_64-linux-gnu/libc.so.6
interactive                                       testpmd.o
                                                  parameters.o
io_fwd_engine                                     iofwd.o
                                                  testpmd.o
ioctl                                             /lib/x86_64-linux-gnu/libc.so.6
ioctl@@GLIBC_2.2.5                                /lib/x86_64-linux-gnu/libc.so.6
ioctl@GLIBC_2.2.5                                 /lib/x86_64-linux-gnu/libc.so.6
                                                  /home/xyh/test/POFSwitch+DPDK+V1.0.5.3/dpdk-2.2.0/x86_64-native-linuxapp-gcc/lib/libdpdk.so
isalnum_l                                         /lib/x86_64-linux-gnu/libc.so.6
isalnum_l@@GLIBC_2.3                              /lib/x86_64-linux-gnu/libc.so.6
isalnum_l@GLIBC_2.3                               /lib/x86_64-linux-gnu/libc.so.6
isalpha_l                                         /lib/x86_64-linux-gnu/libc.so.6
isalpha_l@@GLIBC_2.3                              /lib/x86_64-linux-gnu/libc.so.6
isalpha_l@GLIBC_2.3                               /lib/x86_64-linux-gnu/libc.so.6
isatty                                            /lib/x86_64-linux-gnu/libc.so.6
isatty@@GLIBC_2.2.5                               /lib/x86_64-linux-gnu/libc.so.6
isatty@GLIBC_2.2.5                                /lib/x86_64-linux-gnu/libc.so.6
isblank_l                                         /lib/x86_64-linux-gnu/libc.so.6
isblank_l@@GLIBC_2.3                              /lib/x86_64-linux-gnu/libc.so.6
isblank_l@GLIBC_2.3                               /lib/x86_64-linux-gnu/libc.so.6
iscntrl_l                                         /lib/x86_64-linux-gnu/libc.so.6
iscntrl_l@@GLIBC_2.3                              /lib/x86_64-linux-gnu/libc.so.6
iscntrl_l@GLIBC_2.3                               /lib/x86_64-linux-gnu/libc.so.6
isctype                                           /lib/x86_64-linux-gnu/libc.so.6
isctype@@GLIBC_2.3                                /lib/x86_64-linux-gnu/libc.so.6
isctype@GLIBC_2.3                                 /lib/x86_64-linux-gnu/libc.so.6
isdigit_l                                         /lib/x86_64-linux-gnu/libc.so.6
isdigit_l@@GLIBC_2.3                              /lib/x86_64-linux-gnu/libc.so.6
isdigit_l@GLIBC_2.3                               /lib/x86_64-linux-gnu/libc.so.6
isgraph_l                                         /lib/x86_64-linux-gnu/libc.so.6
isgraph_l@@GLIBC_2.3                              /lib/x86_64-linux-gnu/libc.so.6
isgraph_l@GLIBC_2.3                               /lib/x86_64-linux-gnu/libc.so.6
isinf                                             /lib/x86_64-linux-gnu/libc.so.6
isinf@@GLIBC_2.2.5                                /lib/x86_64-linux-gnu/libc.so.6
isinf@GLIBC_2.2.5                                 /lib/x86_64-linux-gnu/libc.so.6
isinff                                            /lib/x86_64-linux-gnu/libc.so.6
isinff@@GLIBC_2.2.5                               /lib/x86_64-linux-gnu/libc.so.6
isinff@GLIBC_2.2.5                                /lib/x86_64-linux-gnu/libc.so.6
isinfl                                            /lib/x86_64-linux-gnu/libc.so.6
isinfl@@GLIBC_2.2.5                               /lib/x86_64-linux-gnu/libc.so.6
isinfl@GLIBC_2.2.5                                /lib/x86_64-linux-gnu/libc.so.6
islower_l                                         /lib/x86_64-linux-gnu/libc.so.6
islower_l@@GLIBC_2.3                              /lib/x86_64-linux-gnu/libc.so.6
islower_l@GLIBC_2.3                               /lib/x86_64-linux-gnu/libc.so.6
isnan                                             /lib/x86_64-linux-gnu/libc.so.6
isnan@@GLIBC_2.2.5                                /lib/x86_64-linux-gnu/libc.so.6
isnan@GLIBC_2.2.5                                 /lib/x86_64-linux-gnu/libc.so.6
isnanf                                            /lib/x86_64-linux-gnu/libc.so.6
isnanf@@GLIBC_2.2.5                               /lib/x86_64-linux-gnu/libc.so.6
isnanf@GLIBC_2.2.5                                /lib/x86_64-linux-gnu/libc.so.6
isnanl                                            /lib/x86_64-linux-gnu/libc.so.6
isnanl@@GLIBC_2.2.5                               /lib/x86_64-linux-gnu/libc.so.6
isnanl@GLIBC_2.2.5                                /lib/x86_64-linux-gnu/libc.so.6
isprint_l                                         /lib/x86_64-linux-gnu/libc.so.6
isprint_l@@GLIBC_2.3                              /lib/x86_64-linux-gnu/libc.so.6
isprint_l@GLIBC_2.3                               /lib/x86_64-linux-gnu/libc.so.6
ispunct_l                                         /lib/x86_64-linux-gnu/libc.so.6
ispunct_l@@GLIBC_2.3                              /lib/x86_64-linux-gnu/libc.so.6
ispunct_l@GLIBC_2.3                               /lib/x86_64-linux-gnu/libc.so.6
isspace_l                                         /lib/x86_64-linux-gnu/libc.so.6
isspace_l@@GLIBC_2.3                              /lib/x86_64-linux-gnu/libc.so.6
isspace_l@GLIBC_2.3                               /lib/x86_64-linux-gnu/libc.so.6
isupper_l                                         /lib/x86_64-linux-gnu/libc.so.6
isupper_l@@GLIBC_2.3                              /lib/x86_64-linux-gnu/libc.so.6
isupper_l@GLIBC_2.3                               /lib/x86_64-linux-gnu/libc.so.6
iswalnum                                          /lib/x86_64-linux-gnu/libc.so.6
iswalnum@@GLIBC_2.2.5                             /lib/x86_64-linux-gnu/libc.so.6
iswalnum@GLIBC_2.2.5                              /lib/x86_64-linux-gnu/libc.so.6
iswalnum_l                                        /lib/x86_64-linux-gnu/libc.so.6
iswalnum_l@@GLIBC_2.3                             /lib/x86_64-linux-gnu/libc.so.6
iswalnum_l@GLIBC_2.3                              /lib/x86_64-linux-gnu/libc.so.6
iswalpha                                          /lib/x86_64-linux-gnu/libc.so.6
iswalpha@@GLIBC_2.2.5                             /lib/x86_64-linux-gnu/libc.so.6
iswalpha@GLIBC_2.2.5                              /lib/x86_64-linux-gnu/libc.so.6
iswalpha_l                                        /lib/x86_64-linux-gnu/libc.so.6
iswalpha_l@@GLIBC_2.3                             /lib/x86_64-linux-gnu/libc.so.6
iswalpha_l@GLIBC_2.3                              /lib/x86_64-linux-gnu/libc.so.6
iswblank                                          /lib/x86_64-linux-gnu/libc.so.6
iswblank@@GLIBC_2.2.5                             /lib/x86_64-linux-gnu/libc.so.6
iswblank@GLIBC_2.2.5                              /lib/x86_64-linux-gnu/libc.so.6
iswblank_l                                        /lib/x86_64-linux-gnu/libc.so.6
iswblank_l@@GLIBC_2.3                             /lib/x86_64-linux-gnu/libc.so.6
iswblank_l@GLIBC_2.3                              /lib/x86_64-linux-gnu/libc.so.6
iswcntrl                                          /lib/x86_64-linux-gnu/libc.so.6
iswcntrl@@GLIBC_2.2.5                             /lib/x86_64-linux-gnu/libc.so.6
iswcntrl@GLIBC_2.2.5                              /lib/x86_64-linux-gnu/libc.so.6
iswcntrl_l                                        /lib/x86_64-linux-gnu/libc.so.6
iswcntrl_l@@GLIBC_2.3                             /lib/x86_64-linux-gnu/libc.so.6
iswcntrl_l@GLIBC_2.3                              /lib/x86_64-linux-gnu/libc.so.6
iswctype                                          /lib/x86_64-linux-gnu/libc.so.6
iswctype@@GLIBC_2.2.5                             /lib/x86_64-linux-gnu/libc.so.6
iswctype@GLIBC_2.2.5                              /lib/x86_64-linux-gnu/libc.so.6
iswctype_l                                        /lib/x86_64-linux-gnu/libc.so.6
iswctype_l@@GLIBC_2.3                             /lib/x86_64-linux-gnu/libc.so.6
iswctype_l@GLIBC_2.3                              /lib/x86_64-linux-gnu/libc.so.6
iswdigit                                          /lib/x86_64-linux-gnu/libc.so.6
iswdigit@@GLIBC_2.2.5                             /lib/x86_64-linux-gnu/libc.so.6
iswdigit@GLIBC_2.2.5                              /lib/x86_64-linux-gnu/libc.so.6
iswdigit_l                                        /lib/x86_64-linux-gnu/libc.so.6
iswdigit_l@@GLIBC_2.3                             /lib/x86_64-linux-gnu/libc.so.6
iswdigit_l@GLIBC_2.3                              /lib/x86_64-linux-gnu/libc.so.6
iswgraph                                          /lib/x86_64-linux-gnu/libc.so.6
iswgraph@@GLIBC_2.2.5                             /lib/x86_64-linux-gnu/libc.so.6
iswgraph@GLIBC_2.2.5                              /lib/x86_64-linux-gnu/libc.so.6
iswgraph_l                                        /lib/x86_64-linux-gnu/libc.so.6
iswgraph_l@@GLIBC_2.3                             /lib/x86_64-linux-gnu/libc.so.6
iswgraph_l@GLIBC_2.3                              /lib/x86_64-linux-gnu/libc.so.6
iswlower                                          /lib/x86_64-linux-gnu/libc.so.6
iswlower@@GLIBC_2.2.5                             /lib/x86_64-linux-gnu/libc.so.6
iswlower@GLIBC_2.2.5                              /lib/x86_64-linux-gnu/libc.so.6
iswlower_l                                        /lib/x86_64-linux-gnu/libc.so.6
iswlower_l@@GLIBC_2.3                             /lib/x86_64-linux-gnu/libc.so.6
iswlower_l@GLIBC_2.3                              /lib/x86_64-linux-gnu/libc.so.6
iswprint                                          /lib/x86_64-linux-gnu/libc.so.6
iswprint@@GLIBC_2.2.5                             /lib/x86_64-linux-gnu/libc.so.6
iswprint@GLIBC_2.2.5                              /lib/x86_64-linux-gnu/libc.so.6
iswprint_l                                        /lib/x86_64-linux-gnu/libc.so.6
iswprint_l@@GLIBC_2.3                             /lib/x86_64-linux-gnu/libc.so.6
iswprint_l@GLIBC_2.3                              /lib/x86_64-linux-gnu/libc.so.6
iswpunct                                          /lib/x86_64-linux-gnu/libc.so.6
iswpunct@@GLIBC_2.2.5                             /lib/x86_64-linux-gnu/libc.so.6
iswpunct@GLIBC_2.2.5                              /lib/x86_64-linux-gnu/libc.so.6
iswpunct_l                                        /lib/x86_64-linux-gnu/libc.so.6
iswpunct_l@@GLIBC_2.3                             /lib/x86_64-linux-gnu/libc.so.6
iswpunct_l@GLIBC_2.3                              /lib/x86_64-linux-gnu/libc.so.6
iswspace                                          /lib/x86_64-linux-gnu/libc.so.6
iswspace@@GLIBC_2.2.5                             /lib/x86_64-linux-gnu/libc.so.6
iswspace@GLIBC_2.2.5                              /lib/x86_64-linux-gnu/libc.so.6
iswspace_l                                        /lib/x86_64-linux-gnu/libc.so.6
iswspace_l@@GLIBC_2.3                             /lib/x86_64-linux-gnu/libc.so.6
iswspace_l@GLIBC_2.3                              /lib/x86_64-linux-gnu/libc.so.6
iswupper                                          /lib/x86_64-linux-gnu/libc.so.6
iswupper@@GLIBC_2.2.5                             /lib/x86_64-linux-gnu/libc.so.6
iswupper@GLIBC_2.2.5                              /lib/x86_64-linux-gnu/libc.so.6
iswupper_l                                        /lib/x86_64-linux-gnu/libc.so.6
iswupper_l@@GLIBC_2.3                             /lib/x86_64-linux-gnu/libc.so.6
iswupper_l@GLIBC_2.3                              /lib/x86_64-linux-gnu/libc.so.6
iswxdigit                                         /lib/x86_64-linux-gnu/libc.so.6
iswxdigit@@GLIBC_2.2.5                            /lib/x86_64-linux-gnu/libc.so.6
iswxdigit@GLIBC_2.2.5                             /lib/x86_64-linux-gnu/libc.so.6
iswxdigit_l                                       /lib/x86_64-linux-gnu/libc.so.6
iswxdigit_l@@GLIBC_2.3                            /lib/x86_64-linux-gnu/libc.so.6
iswxdigit_l@GLIBC_2.3                             /lib/x86_64-linux-gnu/libc.so.6
isxdigit_l                                        /lib/x86_64-linux-gnu/libc.so.6
isxdigit_l@@GLIBC_2.3                             /lib/x86_64-linux-gnu/libc.so.6
isxdigit_l@GLIBC_2.3                              /lib/x86_64-linux-gnu/libc.so.6
j0l                                               /usr/lib/gcc/x86_64-linux-gnu/4.9/../../../x86_64-linux-gnu/libm.so
j0l@@GLIBC_2.2.5                                  /usr/lib/gcc/x86_64-linux-gnu/4.9/../../../x86_64-linux-gnu/libm.so
j0l@GLIBC_2.2.5                                   /usr/lib/gcc/x86_64-linux-gnu/4.9/../../../x86_64-linux-gnu/libm.so
j1l                                               /usr/lib/gcc/x86_64-linux-gnu/4.9/../../../x86_64-linux-gnu/libm.so
j1l@@GLIBC_2.2.5                                  /usr/lib/gcc/x86_64-linux-gnu/4.9/../../../x86_64-linux-gnu/libm.so
j1l@GLIBC_2.2.5                                   /usr/lib/gcc/x86_64-linux-gnu/4.9/../../../x86_64-linux-gnu/libm.so
jnl                                               /usr/lib/gcc/x86_64-linux-gnu/4.9/../../../x86_64-linux-gnu/libm.so
jnl@@GLIBC_2.2.5                                  /usr/lib/gcc/x86_64-linux-gnu/4.9/../../../x86_64-linux-gnu/libm.so
jnl@GLIBC_2.2.5                                   /usr/lib/gcc/x86_64-linux-gnu/4.9/../../../x86_64-linux-gnu/libm.so
jrand48_r                                         /lib/x86_64-linux-gnu/libc.so.6
jrand48_r@@GLIBC_2.2.5                            /lib/x86_64-linux-gnu/libc.so.6
jrand48_r@GLIBC_2.2.5                             /lib/x86_64-linux-gnu/libc.so.6
kill                                              /lib/x86_64-linux-gnu/libc.so.6
kill@@GLIBC_2.2.5                                 /lib/x86_64-linux-gnu/libc.so.6
kill@GLIBC_2.2.5                                  /lib/x86_64-linux-gnu/libc.so.6
launch_args_parse                                 parameters.o
                                                  testpmd.o
lchown                                            /lib/x86_64-linux-gnu/libc.so.6
lchown@@GLIBC_2.2.5                               /lib/x86_64-linux-gnu/libc.so.6
lchown@GLIBC_2.2.5                                /lib/x86_64-linux-gnu/libc.so.6
lckpwdf                                           /lib/x86_64-linux-gnu/libc.so.6
lckpwdf@@GLIBC_2.2.5                              /lib/x86_64-linux-gnu/libc.so.6
lckpwdf@GLIBC_2.2.5                               /lib/x86_64-linux-gnu/libc.so.6
lcong48_r                                         /lib/x86_64-linux-gnu/libc.so.6
lcong48_r@@GLIBC_2.2.5                            /lib/x86_64-linux-gnu/libc.so.6
lcong48_r@GLIBC_2.2.5                             /lib/x86_64-linux-gnu/libc.so.6
ldexp                                             /usr/lib/gcc/x86_64-linux-gnu/4.9/../../../x86_64-linux-gnu/libm.so
ldexp@@GLIBC_2.2.5                                /usr/lib/gcc/x86_64-linux-gnu/4.9/../../../x86_64-linux-gnu/libm.so
                                                  /lib/x86_64-linux-gnu/libc.so.6
ldexp@GLIBC_2.2.5                                 /usr/lib/gcc/x86_64-linux-gnu/4.9/../../../x86_64-linux-gnu/libm.so
ldexpf                                            /usr/lib/gcc/x86_64-linux-gnu/4.9/../../../x86_64-linux-gnu/libm.so
ldexpf@@GLIBC_2.2.5                               /usr/lib/gcc/x86_64-linux-gnu/4.9/../../../x86_64-linux-gnu/libm.so
                                                  /lib/x86_64-linux-gnu/libc.so.6
ldexpf@GLIBC_2.2.5                                /usr/lib/gcc/x86_64-linux-gnu/4.9/../../../x86_64-linux-gnu/libm.so
ldexpl                                            /usr/lib/gcc/x86_64-linux-gnu/4.9/../../../x86_64-linux-gnu/libm.so
ldexpl@@GLIBC_2.2.5                               /usr/lib/gcc/x86_64-linux-gnu/4.9/../../../x86_64-linux-gnu/libm.so
                                                  /lib/x86_64-linux-gnu/libc.so.6
ldexpl@GLIBC_2.2.5                                /usr/lib/gcc/x86_64-linux-gnu/4.9/../../../x86_64-linux-gnu/libm.so
lgamma                                            /usr/lib/gcc/x86_64-linux-gnu/4.9/../../../x86_64-linux-gnu/libm.so
lgamma@@GLIBC_2.2.5                               /usr/lib/gcc/x86_64-linux-gnu/4.9/../../../x86_64-linux-gnu/libm.so
lgamma@GLIBC_2.2.5                                /usr/lib/gcc/x86_64-linux-gnu/4.9/../../../x86_64-linux-gnu/libm.so
lgamma_r                                          /usr/lib/gcc/x86_64-linux-gnu/4.9/../../../x86_64-linux-gnu/libm.so
lgamma_r@@GLIBC_2.2.5                             /usr/lib/gcc/x86_64-linux-gnu/4.9/../../../x86_64-linux-gnu/libm.so
lgamma_r@GLIBC_2.2.5                              /usr/lib/gcc/x86_64-linux-gnu/4.9/../../../x86_64-linux-gnu/libm.so
lgammaf                                           /usr/lib/gcc/x86_64-linux-gnu/4.9/../../../x86_64-linux-gnu/libm.so
lgammaf@@GLIBC_2.2.5                              /usr/lib/gcc/x86_64-linux-gnu/4.9/../../../x86_64-linux-gnu/libm.so
lgammaf@GLIBC_2.2.5                               /usr/lib/gcc/x86_64-linux-gnu/4.9/../../../x86_64-linux-gnu/libm.so
lgammaf_r                                         /usr/lib/gcc/x86_64-linux-gnu/4.9/../../../x86_64-linux-gnu/libm.so
lgammaf_r@@GLIBC_2.2.5                            /usr/lib/gcc/x86_64-linux-gnu/4.9/../../../x86_64-linux-gnu/libm.so
lgammaf_r@GLIBC_2.2.5                             /usr/lib/gcc/x86_64-linux-gnu/4.9/../../../x86_64-linux-gnu/libm.so
lgammal                                           /usr/lib/gcc/x86_64-linux-gnu/4.9/../../../x86_64-linux-gnu/libm.so
lgammal@@GLIBC_2.2.5                              /usr/lib/gcc/x86_64-linux-gnu/4.9/../../../x86_64-linux-gnu/libm.so
lgammal@GLIBC_2.2.5                               /usr/lib/gcc/x86_64-linux-gnu/4.9/../../../x86_64-linux-gnu/libm.so
lgammal_r                                         /usr/lib/gcc/x86_64-linux-gnu/4.9/../../../x86_64-linux-gnu/libm.so
lgammal_r@@GLIBC_2.2.5                            /usr/lib/gcc/x86_64-linux-gnu/4.9/../../../x86_64-linux-gnu/libm.so
lgammal_r@GLIBC_2.2.5                             /usr/lib/gcc/x86_64-linux-gnu/4.9/../../../x86_64-linux-gnu/libm.so
link                                              /lib/x86_64-linux-gnu/libc.so.6
link@@GLIBC_2.2.5                                 /lib/x86_64-linux-gnu/libc.so.6
link@GLIBC_2.2.5                                  /lib/x86_64-linux-gnu/libc.so.6
                                                  /lib/x86_64-linux-gnu/libpthread.so.0
list_pkt_forwarding_modes                         config.o
                                                  cmdline.o
                                                  parameters.o
listen                                            /lib/x86_64-linux-gnu/libc.so.6
listen@@GLIBC_2.2.5                               /lib/x86_64-linux-gnu/libc.so.6
listen@GLIBC_2.2.5                                /lib/x86_64-linux-gnu/libc.so.6
                                                  /home/xyh/test/POFSwitch+DPDK+V1.0.5.3/dpdk-2.2.0/x86_64-native-linuxapp-gcc/lib/libdpdk.so
llrint                                            /usr/lib/gcc/x86_64-linux-gnu/4.9/../../../x86_64-linux-gnu/libm.so
llrint@@GLIBC_2.2.5                               /usr/lib/gcc/x86_64-linux-gnu/4.9/../../../x86_64-linux-gnu/libm.so
llrint@GLIBC_2.2.5                                /usr/lib/gcc/x86_64-linux-gnu/4.9/../../../x86_64-linux-gnu/libm.so
llrintf                                           /usr/lib/gcc/x86_64-linux-gnu/4.9/../../../x86_64-linux-gnu/libm.so
llrintf@@GLIBC_2.2.5                              /usr/lib/gcc/x86_64-linux-gnu/4.9/../../../x86_64-linux-gnu/libm.so
llrintf@GLIBC_2.2.5                               /usr/lib/gcc/x86_64-linux-gnu/4.9/../../../x86_64-linux-gnu/libm.so
llrintl                                           /usr/lib/gcc/x86_64-linux-gnu/4.9/../../../x86_64-linux-gnu/libm.so
llrintl@@GLIBC_2.2.5                              /usr/lib/gcc/x86_64-linux-gnu/4.9/../../../x86_64-linux-gnu/libm.so
llrintl@GLIBC_2.2.5                               /usr/lib/gcc/x86_64-linux-gnu/4.9/../../../x86_64-linux-gnu/libm.so
llround                                           /usr/lib/gcc/x86_64-linux-gnu/4.9/../../../x86_64-linux-gnu/libm.so
llround@@GLIBC_2.2.5                              /usr/lib/gcc/x86_64-linux-gnu/4.9/../../../x86_64-linux-gnu/libm.so
llround@GLIBC_2.2.5                               /usr/lib/gcc/x86_64-linux-gnu/4.9/../../../x86_64-linux-gnu/libm.so
llroundf                                          /usr/lib/gcc/x86_64-linux-gnu/4.9/../../../x86_64-linux-gnu/libm.so
llroundf@@GLIBC_2.2.5                             /usr/lib/gcc/x86_64-linux-gnu/4.9/../../../x86_64-linux-gnu/libm.so
llroundf@GLIBC_2.2.5                              /usr/lib/gcc/x86_64-linux-gnu/4.9/../../../x86_64-linux-gnu/libm.so
llroundl                                          /usr/lib/gcc/x86_64-linux-gnu/4.9/../../../x86_64-linux-gnu/libm.so
llroundl@@GLIBC_2.2.5                             /usr/lib/gcc/x86_64-linux-gnu/4.9/../../../x86_64-linux-gnu/libm.so
llroundl@GLIBC_2.2.5                              /usr/lib/gcc/x86_64-linux-gnu/4.9/../../../x86_64-linux-gnu/libm.so
llseek                                            /lib/x86_64-linux-gnu/libc.so.6
llseek@@GLIBC_2.2.5                               /lib/x86_64-linux-gnu/libc.so.6
llseek@GLIBC_2.2.5                                /lib/x86_64-linux-gnu/libc.so.6
localtime_r                                       /lib/x86_64-linux-gnu/libc.so.6
localtime_r@@GLIBC_2.2.5                          /lib/x86_64-linux-gnu/libc.so.6
localtime_r@GLIBC_2.2.5                           /lib/x86_64-linux-gnu/libc.so.6
lockf64                                           /lib/x86_64-linux-gnu/libc.so.6
lockf64@@GLIBC_2.2.5                              /lib/x86_64-linux-gnu/libc.so.6
lockf64@GLIBC_2.2.5                               /lib/x86_64-linux-gnu/libc.so.6
log                                               /usr/lib/gcc/x86_64-linux-gnu/4.9/../../../x86_64-linux-gnu/libm.so
log10                                             /usr/lib/gcc/x86_64-linux-gnu/4.9/../../../x86_64-linux-gnu/libm.so
log10@@GLIBC_2.2.5                                /usr/lib/gcc/x86_64-linux-gnu/4.9/../../../x86_64-linux-gnu/libm.so
log10@GLIBC_2.2.5                                 /usr/lib/gcc/x86_64-linux-gnu/4.9/../../../x86_64-linux-gnu/libm.so
log10f                                            /usr/lib/gcc/x86_64-linux-gnu/4.9/../../../x86_64-linux-gnu/libm.so
log10f@@GLIBC_2.2.5                               /usr/lib/gcc/x86_64-linux-gnu/4.9/../../../x86_64-linux-gnu/libm.so
log10f@GLIBC_2.2.5                                /usr/lib/gcc/x86_64-linux-gnu/4.9/../../../x86_64-linux-gnu/libm.so
log10l                                            /usr/lib/gcc/x86_64-linux-gnu/4.9/../../../x86_64-linux-gnu/libm.so
log10l@@GLIBC_2.2.5                               /usr/lib/gcc/x86_64-linux-gnu/4.9/../../../x86_64-linux-gnu/libm.so
log10l@GLIBC_2.2.5                                /usr/lib/gcc/x86_64-linux-gnu/4.9/../../../x86_64-linux-gnu/libm.so
log1p                                             /usr/lib/gcc/x86_64-linux-gnu/4.9/../../../x86_64-linux-gnu/libm.so
log1p@@GLIBC_2.2.5                                /usr/lib/gcc/x86_64-linux-gnu/4.9/../../../x86_64-linux-gnu/libm.so
log1p@GLIBC_2.2.5                                 /usr/lib/gcc/x86_64-linux-gnu/4.9/../../../x86_64-linux-gnu/libm.so
log1pf                                            /usr/lib/gcc/x86_64-linux-gnu/4.9/../../../x86_64-linux-gnu/libm.so
log1pf@@GLIBC_2.2.5                               /usr/lib/gcc/x86_64-linux-gnu/4.9/../../../x86_64-linux-gnu/libm.so
log1pf@GLIBC_2.2.5                                /usr/lib/gcc/x86_64-linux-gnu/4.9/../../../x86_64-linux-gnu/libm.so
log1pl                                            /usr/lib/gcc/x86_64-linux-gnu/4.9/../../../x86_64-linux-gnu/libm.so
log1pl@@GLIBC_2.2.5                               /usr/lib/gcc/x86_64-linux-gnu/4.9/../../../x86_64-linux-gnu/libm.so
log1pl@GLIBC_2.2.5                                /usr/lib/gcc/x86_64-linux-gnu/4.9/../../../x86_64-linux-gnu/libm.so
log2                                              /usr/lib/gcc/x86_64-linux-gnu/4.9/../../../x86_64-linux-gnu/libm.so
                                                  /home/xyh/test/POFSwitch+DPDK+V1.0.5.3/dpdk-2.2.0/x86_64-native-linuxapp-gcc/lib/libdpdk.so
log2@@GLIBC_2.2.5                                 /usr/lib/gcc/x86_64-linux-gnu/4.9/../../../x86_64-linux-gnu/libm.so
log2@GLIBC_2.2.5                                  /usr/lib/gcc/x86_64-linux-gnu/4.9/../../../x86_64-linux-gnu/libm.so
log2f                                             /usr/lib/gcc/x86_64-linux-gnu/4.9/../../../x86_64-linux-gnu/libm.so
log2f@@GLIBC_2.2.5                                /usr/lib/gcc/x86_64-linux-gnu/4.9/../../../x86_64-linux-gnu/libm.so
log2f@GLIBC_2.2.5                                 /usr/lib/gcc/x86_64-linux-gnu/4.9/../../../x86_64-linux-gnu/libm.so
log2l                                             /usr/lib/gcc/x86_64-linux-gnu/4.9/../../../x86_64-linux-gnu/libm.so
log2l@@GLIBC_2.2.5                                /usr/lib/gcc/x86_64-linux-gnu/4.9/../../../x86_64-linux-gnu/libm.so
log2l@GLIBC_2.2.5                                 /usr/lib/gcc/x86_64-linux-gnu/4.9/../../../x86_64-linux-gnu/libm.so
log@@GLIBC_2.2.5                                  /usr/lib/gcc/x86_64-linux-gnu/4.9/../../../x86_64-linux-gnu/libm.so
log@GLIBC_2.2.5                                   /usr/lib/gcc/x86_64-linux-gnu/4.9/../../../x86_64-linux-gnu/libm.so
logb                                              /usr/lib/gcc/x86_64-linux-gnu/4.9/../../../x86_64-linux-gnu/libm.so
logb@@GLIBC_2.2.5                                 /usr/lib/gcc/x86_64-linux-gnu/4.9/../../../x86_64-linux-gnu/libm.so
logb@GLIBC_2.2.5                                  /usr/lib/gcc/x86_64-linux-gnu/4.9/../../../x86_64-linux-gnu/libm.so
logbf                                             /usr/lib/gcc/x86_64-linux-gnu/4.9/../../../x86_64-linux-gnu/libm.so
logbf@@GLIBC_2.2.5                                /usr/lib/gcc/x86_64-linux-gnu/4.9/../../../x86_64-linux-gnu/libm.so
logbf@GLIBC_2.2.5                                 /usr/lib/gcc/x86_64-linux-gnu/4.9/../../../x86_64-linux-gnu/libm.so
logbl                                             /usr/lib/gcc/x86_64-linux-gnu/4.9/../../../x86_64-linux-gnu/libm.so
logbl@@GLIBC_2.2.5                                /usr/lib/gcc/x86_64-linux-gnu/4.9/../../../x86_64-linux-gnu/libm.so
logbl@GLIBC_2.2.5                                 /usr/lib/gcc/x86_64-linux-gnu/4.9/../../../x86_64-linux-gnu/libm.so
logf                                              /usr/lib/gcc/x86_64-linux-gnu/4.9/../../../x86_64-linux-gnu/libm.so
logf@@GLIBC_2.2.5                                 /usr/lib/gcc/x86_64-linux-gnu/4.9/../../../x86_64-linux-gnu/libm.so
logf@GLIBC_2.2.5                                  /usr/lib/gcc/x86_64-linux-gnu/4.9/../../../x86_64-linux-gnu/libm.so
logl                                              /usr/lib/gcc/x86_64-linux-gnu/4.9/../../../x86_64-linux-gnu/libm.so
logl@@GLIBC_2.2.5                                 /usr/lib/gcc/x86_64-linux-gnu/4.9/../../../x86_64-linux-gnu/libm.so
logl@GLIBC_2.2.5                                  /usr/lib/gcc/x86_64-linux-gnu/4.9/../../../x86_64-linux-gnu/libm.so
lrint                                             /usr/lib/gcc/x86_64-linux-gnu/4.9/../../../x86_64-linux-gnu/libm.so
lrint@@GLIBC_2.2.5                                /usr/lib/gcc/x86_64-linux-gnu/4.9/../../../x86_64-linux-gnu/libm.so
lrint@GLIBC_2.2.5                                 /usr/lib/gcc/x86_64-linux-gnu/4.9/../../../x86_64-linux-gnu/libm.so
lrintf                                            /usr/lib/gcc/x86_64-linux-gnu/4.9/../../../x86_64-linux-gnu/libm.so
lrintf@@GLIBC_2.2.5                               /usr/lib/gcc/x86_64-linux-gnu/4.9/../../../x86_64-linux-gnu/libm.so
lrintf@GLIBC_2.2.5                                /usr/lib/gcc/x86_64-linux-gnu/4.9/../../../x86_64-linux-gnu/libm.so
lrintl                                            /usr/lib/gcc/x86_64-linux-gnu/4.9/../../../x86_64-linux-gnu/libm.so
lrintl@@GLIBC_2.2.5                               /usr/lib/gcc/x86_64-linux-gnu/4.9/../../../x86_64-linux-gnu/libm.so
lrintl@GLIBC_2.2.5                                /usr/lib/gcc/x86_64-linux-gnu/4.9/../../../x86_64-linux-gnu/libm.so
lround                                            /usr/lib/gcc/x86_64-linux-gnu/4.9/../../../x86_64-linux-gnu/libm.so
lround@@GLIBC_2.2.5                               /usr/lib/gcc/x86_64-linux-gnu/4.9/../../../x86_64-linux-gnu/libm.so
lround@GLIBC_2.2.5                                /usr/lib/gcc/x86_64-linux-gnu/4.9/../../../x86_64-linux-gnu/libm.so
lroundf                                           /usr/lib/gcc/x86_64-linux-gnu/4.9/../../../x86_64-linux-gnu/libm.so
lroundf@@GLIBC_2.2.5                              /usr/lib/gcc/x86_64-linux-gnu/4.9/../../../x86_64-linux-gnu/libm.so
lroundf@GLIBC_2.2.5                               /usr/lib/gcc/x86_64-linux-gnu/4.9/../../../x86_64-linux-gnu/libm.so
lroundl                                           /usr/lib/gcc/x86_64-linux-gnu/4.9/../../../x86_64-linux-gnu/libm.so
lroundl@@GLIBC_2.2.5                              /usr/lib/gcc/x86_64-linux-gnu/4.9/../../../x86_64-linux-gnu/libm.so
lroundl@GLIBC_2.2.5                               /usr/lib/gcc/x86_64-linux-gnu/4.9/../../../x86_64-linux-gnu/libm.so
lseek                                             /lib/x86_64-linux-gnu/libpthread.so.0
lseek64                                           /lib/x86_64-linux-gnu/libpthread.so.0
lseek64@@GLIBC_2.2.5                              /lib/x86_64-linux-gnu/libpthread.so.0
                                                  /lib/x86_64-linux-gnu/libc.so.6
lseek64@GLIBC_2.2.5                               /lib/x86_64-linux-gnu/libpthread.so.0
                                                  /home/xyh/test/POFSwitch+DPDK+V1.0.5.3/dpdk-2.2.0/x86_64-native-linuxapp-gcc/lib/libdpdk.so
lseek@@GLIBC_2.2.5                                /lib/x86_64-linux-gnu/libpthread.so.0
                                                  /lib/x86_64-linux-gnu/libc.so.6
lseek@GLIBC_2.2.5                                 /lib/x86_64-linux-gnu/libpthread.so.0
mac_fwd_engine                                    macfwd.o
                                                  testpmd.o
mac_retry_fwd_engine                              macfwd-retry.o
                                                  testpmd.o
mac_swap_engine                                   macswap.o
                                                  testpmd.o
madvise                                           /lib/x86_64-linux-gnu/libc.so.6
madvise@@GLIBC_2.2.5                              /lib/x86_64-linux-gnu/libc.so.6
madvise@GLIBC_2.2.5                               /lib/x86_64-linux-gnu/libc.so.6
main                                              testpmd.o
                                                  /usr/lib/gcc/x86_64-linux-gnu/4.9/../../../x86_64-linux-gnu/crt1.o
main_ctx                                          cmdline.o
makecontext                                       /lib/x86_64-linux-gnu/libc.so.6
makecontext@@GLIBC_2.2.5                          /lib/x86_64-linux-gnu/libc.so.6
makecontext@GLIBC_2.2.5                           /lib/x86_64-linux-gnu/libc.so.6
mallinfo                                          /lib/x86_64-linux-gnu/libc.so.6
mallinfo@@GLIBC_2.2.5                             /lib/x86_64-linux-gnu/libc.so.6
mallinfo@GLIBC_2.2.5                              /lib/x86_64-linux-gnu/libc.so.6
malloc                                            /lib/x86_64-linux-gnu/libc.so.6
                                                  config.o
malloc@@GLIBC_2.2.5                               /lib/x86_64-linux-gnu/libc.so.6
                                                  /lib/x86_64-linux-gnu/ld-linux-x86-64.so.2
malloc@GLIBC_2.2.5                                /lib/x86_64-linux-gnu/libc.so.6
                                                  /lib/x86_64-linux-gnu/libpthread.so.0
                                                  /usr/lib/gcc/x86_64-linux-gnu/4.9/libgcc_s.so
                                                  /usr/lib/gcc/x86_64-linux-gnu/4.9/../../../x86_64-linux-gnu/librt.so
                                                  /home/xyh/test/POFSwitch+DPDK+V1.0.5.3/dpdk-2.2.0/x86_64-native-linuxapp-gcc/lib/libdpdk.so
malloc_get_state                                  /lib/x86_64-linux-gnu/libc.so.6
malloc_get_state@@GLIBC_2.2.5                     /lib/x86_64-linux-gnu/libc.so.6
malloc_get_state@GLIBC_2.2.5                      /lib/x86_64-linux-gnu/libc.so.6
malloc_info                                       /lib/x86_64-linux-gnu/libc.so.6
malloc_info@@GLIBC_2.10                           /lib/x86_64-linux-gnu/libc.so.6
malloc_info@GLIBC_2.10                            /lib/x86_64-linux-gnu/libc.so.6
malloc_set_state                                  /lib/x86_64-linux-gnu/libc.so.6
malloc_set_state@@GLIBC_2.2.5                     /lib/x86_64-linux-gnu/libc.so.6
malloc_set_state@GLIBC_2.2.5                      /lib/x86_64-linux-gnu/libc.so.6
malloc_stats                                      /lib/x86_64-linux-gnu/libc.so.6
malloc_stats@@GLIBC_2.2.5                         /lib/x86_64-linux-gnu/libc.so.6
malloc_stats@GLIBC_2.2.5                          /lib/x86_64-linux-gnu/libc.so.6
malloc_trim                                       /lib/x86_64-linux-gnu/libc.so.6
malloc_trim@@GLIBC_2.2.5                          /lib/x86_64-linux-gnu/libc.so.6
malloc_trim@GLIBC_2.2.5                           /lib/x86_64-linux-gnu/libc.so.6
malloc_usable_size                                /lib/x86_64-linux-gnu/libc.so.6
malloc_usable_size@@GLIBC_2.2.5                   /lib/x86_64-linux-gnu/libc.so.6
malloc_usable_size@GLIBC_2.2.5                    /lib/x86_64-linux-gnu/libc.so.6
mallopt                                           /lib/x86_64-linux-gnu/libc.so.6
mallopt@@GLIBC_2.2.5                              /lib/x86_64-linux-gnu/libc.so.6
mallopt@GLIBC_2.2.5                               /lib/x86_64-linux-gnu/libc.so.6
matherr                                           /usr/lib/gcc/x86_64-linux-gnu/4.9/../../../x86_64-linux-gnu/libm.so
matherr@@GLIBC_2.2.5                              /usr/lib/gcc/x86_64-linux-gnu/4.9/../../../x86_64-linux-gnu/libm.so
matherr@GLIBC_2.2.5                               /usr/lib/gcc/x86_64-linux-gnu/4.9/../../../x86_64-linux-gnu/libm.so
max_socket                                        testpmd.o
                                                  parameters.o
mb_mempool_cache                                  testpmd.o
                                                  parameters.o
mbrlen                                            /lib/x86_64-linux-gnu/libc.so.6
mbrlen@@GLIBC_2.2.5                               /lib/x86_64-linux-gnu/libc.so.6
mbrlen@GLIBC_2.2.5                                /lib/x86_64-linux-gnu/libc.so.6
mbrtoc32                                          /lib/x86_64-linux-gnu/libc.so.6
mbrtoc32@@GLIBC_2.16                              /lib/x86_64-linux-gnu/libc.so.6
mbrtoc32@GLIBC_2.16                               /lib/x86_64-linux-gnu/libc.so.6
mbrtowc                                           /lib/x86_64-linux-gnu/libc.so.6
mbrtowc@@GLIBC_2.2.5                              /lib/x86_64-linux-gnu/libc.so.6
mbrtowc@GLIBC_2.2.5                               /lib/x86_64-linux-gnu/libc.so.6
mbsinit                                           /lib/x86_64-linux-gnu/libc.so.6
mbsinit@@GLIBC_2.2.5                              /lib/x86_64-linux-gnu/libc.so.6
mbsinit@GLIBC_2.2.5                               /lib/x86_64-linux-gnu/libc.so.6
mbsnrtowcs                                        /lib/x86_64-linux-gnu/libc.so.6
mbsnrtowcs@@GLIBC_2.2.5                           /lib/x86_64-linux-gnu/libc.so.6
mbsnrtowcs@GLIBC_2.2.5                            /lib/x86_64-linux-gnu/libc.so.6
mbsrtowcs                                         /lib/x86_64-linux-gnu/libc.so.6
mbsrtowcs@@GLIBC_2.2.5                            /lib/x86_64-linux-gnu/libc.so.6
mbsrtowcs@GLIBC_2.2.5                             /lib/x86_64-linux-gnu/libc.so.6
mbuf_data_size                                    testpmd.o
                                                  config.o
                                                  parameters.o
mcast_addr_add                                    config.o
                                                  cmdline.o
mcast_addr_remove                                 config.o
                                                  cmdline.o
mcount                                            /lib/x86_64-linux-gnu/libc.so.6
mcount@@GLIBC_2.2.5                               /lib/x86_64-linux-gnu/libc.so.6
mcount@GLIBC_2.2.5                                /lib/x86_64-linux-gnu/libc.so.6
memalign                                          /lib/x86_64-linux-gnu/libc.so.6
memalign@@GLIBC_2.2.5                             /lib/x86_64-linux-gnu/libc.so.6
memalign@GLIBC_2.2.5                              /lib/x86_64-linux-gnu/libc.so.6
memccpy                                           /lib/x86_64-linux-gnu/libc.so.6
memccpy@@GLIBC_2.2.5                              /lib/x86_64-linux-gnu/libc.so.6
memccpy@GLIBC_2.2.5                               /lib/x86_64-linux-gnu/libc.so.6
memcpy                                            /lib/x86_64-linux-gnu/libc.so.6
                                                  csumonly.o
                                                  testpmd.o
memcpy@@GLIBC_2.14                                /lib/x86_64-linux-gnu/libc.so.6
memcpy@GLIBC_2.14                                 /lib/x86_64-linux-gnu/libc.so.6
                                                  /lib/x86_64-linux-gnu/libpthread.so.0
                                                  /usr/lib/gcc/x86_64-linux-gnu/4.9/libgcc_s.so
                                                  /usr/lib/gcc/x86_64-linux-gnu/4.9/../../../x86_64-linux-gnu/librt.so
                                                  /home/xyh/test/POFSwitch+DPDK+V1.0.5.3/dpdk-2.2.0/x86_64-native-linuxapp-gcc/lib/libdpdk.so
memmem                                            /lib/x86_64-linux-gnu/libc.so.6
memmem@@GLIBC_2.2.5                               /lib/x86_64-linux-gnu/libc.so.6
memmem@GLIBC_2.2.5                                /lib/x86_64-linux-gnu/libc.so.6
memmove                                           /lib/x86_64-linux-gnu/libc.so.6
                                                  config.o
memmove@@GLIBC_2.2.5                              /lib/x86_64-linux-gnu/libc.so.6
memmove@GLIBC_2.2.5                               /lib/x86_64-linux-gnu/libc.so.6
                                                  /usr/lib/gcc/x86_64-linux-gnu/4.9/../../../x86_64-linux-gnu/libm.so
                                                  /home/xyh/test/POFSwitch+DPDK+V1.0.5.3/dpdk-2.2.0/x86_64-native-linuxapp-gcc/lib/libdpdk.so
mempcpy                                           /lib/x86_64-linux-gnu/libc.so.6
mempcpy@@GLIBC_2.2.5                              /lib/x86_64-linux-gnu/libc.so.6
mempcpy@GLIBC_2.2.5                               /lib/x86_64-linux-gnu/libc.so.6
mempool_anon_create                               mempool_anon.o
                                                  testpmd.o
memrchr                                           /lib/x86_64-linux-gnu/libc.so.6
memrchr@@GLIBC_2.2.5                              /lib/x86_64-linux-gnu/libc.so.6
memrchr@GLIBC_2.2.5                               /lib/x86_64-linux-gnu/libc.so.6
memset                                            /lib/x86_64-linux-gnu/libc.so.6
                                                  config.o
                                                  cmdline.o
                                                  testpmd.o
memset@@GLIBC_2.2.5                               /lib/x86_64-linux-gnu/libc.so.6
memset@GLIBC_2.2.5                                /lib/x86_64-linux-gnu/libc.so.6
                                                  /lib/x86_64-linux-gnu/libpthread.so.0
                                                  /usr/lib/gcc/x86_64-linux-gnu/4.9/libgcc_s.so
                                                  /usr/lib/gcc/x86_64-linux-gnu/4.9/../../../x86_64-linux-gnu/libm.so
                                                  /home/xyh/test/POFSwitch+DPDK+V1.0.5.3/dpdk-2.2.0/x86_64-native-linuxapp-gcc/lib/libdpdk.so
mkdir                                             /lib/x86_64-linux-gnu/libc.so.6
mkdir@@GLIBC_2.2.5                                /lib/x86_64-linux-gnu/libc.so.6
mkdir@GLIBC_2.2.5                                 /lib/x86_64-linux-gnu/libc.so.6
mkostemp64                                        /lib/x86_64-linux-gnu/libc.so.6
mkostemp64@@GLIBC_2.7                             /lib/x86_64-linux-gnu/libc.so.6
mkostemp64@GLIBC_2.7                              /lib/x86_64-linux-gnu/libc.so.6
mkostemps64                                       /lib/x86_64-linux-gnu/libc.so.6
mkostemps64@@GLIBC_2.11                           /lib/x86_64-linux-gnu/libc.so.6
mkostemps64@GLIBC_2.11                            /lib/x86_64-linux-gnu/libc.so.6
mkstemp64                                         /lib/x86_64-linux-gnu/libc.so.6
mkstemp64@@GLIBC_2.2.5                            /lib/x86_64-linux-gnu/libc.so.6
mkstemp64@GLIBC_2.2.5                             /lib/x86_64-linux-gnu/libc.so.6
mkstemps64                                        /lib/x86_64-linux-gnu/libc.so.6
mkstemps64@@GLIBC_2.11                            /lib/x86_64-linux-gnu/libc.so.6
mkstemps64@GLIBC_2.11                             /lib/x86_64-linux-gnu/libc.so.6
mktemp                                            /lib/x86_64-linux-gnu/libc.so.6
mktemp@@GLIBC_2.2.5                               /lib/x86_64-linux-gnu/libc.so.6
mktemp@GLIBC_2.2.5                                /lib/x86_64-linux-gnu/libc.so.6
mmap                                              /lib/x86_64-linux-gnu/libc.so.6
                                                  mempool_anon.o
mmap64                                            /lib/x86_64-linux-gnu/libc.so.6
mmap64@@GLIBC_2.2.5                               /lib/x86_64-linux-gnu/libc.so.6
mmap64@GLIBC_2.2.5                                /lib/x86_64-linux-gnu/libc.so.6
                                                  /home/xyh/test/POFSwitch+DPDK+V1.0.5.3/dpdk-2.2.0/x86_64-native-linuxapp-gcc/lib/libdpdk.so
mmap@@GLIBC_2.2.5                                 /lib/x86_64-linux-gnu/libc.so.6
mmap@GLIBC_2.2.5                                  /lib/x86_64-linux-gnu/libc.so.6
                                                  /lib/x86_64-linux-gnu/libpthread.so.0
                                                  /home/xyh/test/POFSwitch+DPDK+V1.0.5.3/dpdk-2.2.0/x86_64-native-linuxapp-gcc/lib/libdpdk.so
modf                                              /usr/lib/gcc/x86_64-linux-gnu/4.9/../../../x86_64-linux-gnu/libm.so
modf@@GLIBC_2.2.5                                 /usr/lib/gcc/x86_64-linux-gnu/4.9/../../../x86_64-linux-gnu/libm.so
                                                  /lib/x86_64-linux-gnu/libc.so.6
modf@GLIBC_2.2.5                                  /usr/lib/gcc/x86_64-linux-gnu/4.9/../../../x86_64-linux-gnu/libm.so
modff                                             /usr/lib/gcc/x86_64-linux-gnu/4.9/../../../x86_64-linux-gnu/libm.so
modff@@GLIBC_2.2.5                                /usr/lib/gcc/x86_64-linux-gnu/4.9/../../../x86_64-linux-gnu/libm.so
                                                  /lib/x86_64-linux-gnu/libc.so.6
modff@GLIBC_2.2.5                                 /usr/lib/gcc/x86_64-linux-gnu/4.9/../../../x86_64-linux-gnu/libm.so
modfl                                             /usr/lib/gcc/x86_64-linux-gnu/4.9/../../../x86_64-linux-gnu/libm.so
modfl@@GLIBC_2.2.5                                /usr/lib/gcc/x86_64-linux-gnu/4.9/../../../x86_64-linux-gnu/libm.so
                                                  /lib/x86_64-linux-gnu/libc.so.6
modfl@GLIBC_2.2.5                                 /usr/lib/gcc/x86_64-linux-gnu/4.9/../../../x86_64-linux-gnu/libm.so
modify_ldt                                        /lib/x86_64-linux-gnu/libc.so.6
modify_ldt@@GLIBC_2.2.5                           /lib/x86_64-linux-gnu/libc.so.6
modify_ldt@GLIBC_2.2.5                            /lib/x86_64-linux-gnu/libc.so.6
moncontrol                                        /lib/x86_64-linux-gnu/libc.so.6
moncontrol@@GLIBC_2.2.5                           /lib/x86_64-linux-gnu/libc.so.6
moncontrol@GLIBC_2.2.5                            /lib/x86_64-linux-gnu/libc.so.6
monstartup                                        /lib/x86_64-linux-gnu/libc.so.6
monstartup@@GLIBC_2.2.5                           /lib/x86_64-linux-gnu/libc.so.6
monstartup@GLIBC_2.2.5                            /lib/x86_64-linux-gnu/libc.so.6
mount                                             /lib/x86_64-linux-gnu/libc.so.6
mount@@GLIBC_2.2.5                                /lib/x86_64-linux-gnu/libc.so.6
mount@GLIBC_2.2.5                                 /lib/x86_64-linux-gnu/libc.so.6
mp_anon                                           testpmd.o
                                                  config.o
                                                  parameters.o
mprotect                                          /lib/x86_64-linux-gnu/libc.so.6
mprotect@@GLIBC_2.2.5                             /lib/x86_64-linux-gnu/libc.so.6
mprotect@GLIBC_2.2.5                              /lib/x86_64-linux-gnu/libc.so.6
                                                  /lib/x86_64-linux-gnu/libpthread.so.0
mq_setattr                                        /usr/lib/gcc/x86_64-linux-gnu/4.9/../../../x86_64-linux-gnu/librt.so
mq_setattr@@GLIBC_2.3.4                           /usr/lib/gcc/x86_64-linux-gnu/4.9/../../../x86_64-linux-gnu/librt.so
mq_setattr@GLIBC_2.3.4                            /usr/lib/gcc/x86_64-linux-gnu/4.9/../../../x86_64-linux-gnu/librt.so
mq_timedreceive                                   /usr/lib/gcc/x86_64-linux-gnu/4.9/../../../x86_64-linux-gnu/librt.so
mq_timedreceive@@GLIBC_2.3.4                      /usr/lib/gcc/x86_64-linux-gnu/4.9/../../../x86_64-linux-gnu/librt.so
mq_timedreceive@GLIBC_2.3.4                       /usr/lib/gcc/x86_64-linux-gnu/4.9/../../../x86_64-linux-gnu/librt.so
mq_timedsend                                      /usr/lib/gcc/x86_64-linux-gnu/4.9/../../../x86_64-linux-gnu/librt.so
mq_timedsend@@GLIBC_2.3.4                         /usr/lib/gcc/x86_64-linux-gnu/4.9/../../../x86_64-linux-gnu/librt.so
mq_timedsend@GLIBC_2.3.4                          /usr/lib/gcc/x86_64-linux-gnu/4.9/../../../x86_64-linux-gnu/librt.so
mremap                                            /lib/x86_64-linux-gnu/libc.so.6
mremap@@GLIBC_2.2.5                               /lib/x86_64-linux-gnu/libc.so.6
mremap@GLIBC_2.2.5                                /lib/x86_64-linux-gnu/libc.so.6
msgctl                                            /lib/x86_64-linux-gnu/libc.so.6
msgctl@@GLIBC_2.2.5                               /lib/x86_64-linux-gnu/libc.so.6
msgctl@GLIBC_2.2.5                                /lib/x86_64-linux-gnu/libc.so.6
msgget                                            /lib/x86_64-linux-gnu/libc.so.6
msgget@@GLIBC_2.2.5                               /lib/x86_64-linux-gnu/libc.so.6
msgget@GLIBC_2.2.5                                /lib/x86_64-linux-gnu/libc.so.6
msgrcv                                            /lib/x86_64-linux-gnu/libc.so.6
msgrcv@@GLIBC_2.2.5                               /lib/x86_64-linux-gnu/libc.so.6
msgrcv@GLIBC_2.2.5                                /lib/x86_64-linux-gnu/libc.so.6
msgsnd                                            /lib/x86_64-linux-gnu/libc.so.6
msgsnd@@GLIBC_2.2.5                               /lib/x86_64-linux-gnu/libc.so.6
msgsnd@GLIBC_2.2.5                                /lib/x86_64-linux-gnu/libc.so.6
msync                                             /lib/x86_64-linux-gnu/libpthread.so.0
msync@@GLIBC_2.2.5                                /lib/x86_64-linux-gnu/libpthread.so.0
                                                  /lib/x86_64-linux-gnu/libc.so.6
msync@GLIBC_2.2.5                                 /lib/x86_64-linux-gnu/libpthread.so.0
munmap                                            /lib/x86_64-linux-gnu/libc.so.6
                                                  mempool_anon.o
munmap@@GLIBC_2.2.5                               /lib/x86_64-linux-gnu/libc.so.6
munmap@GLIBC_2.2.5                                /lib/x86_64-linux-gnu/libc.so.6
                                                  /lib/x86_64-linux-gnu/libpthread.so.0
                                                  /home/xyh/test/POFSwitch+DPDK+V1.0.5.3/dpdk-2.2.0/x86_64-native-linuxapp-gcc/lib/libdpdk.so
nan                                               /usr/lib/gcc/x86_64-linux-gnu/4.9/../../../x86_64-linux-gnu/libm.so
nan@@GLIBC_2.2.5                                  /usr/lib/gcc/x86_64-linux-gnu/4.9/../../../x86_64-linux-gnu/libm.so
nan@GLIBC_2.2.5                                   /usr/lib/gcc/x86_64-linux-gnu/4.9/../../../x86_64-linux-gnu/libm.so
nanf                                              /usr/lib/gcc/x86_64-linux-gnu/4.9/../../../x86_64-linux-gnu/libm.so
nanf@@GLIBC_2.2.5                                 /usr/lib/gcc/x86_64-linux-gnu/4.9/../../../x86_64-linux-gnu/libm.so
nanf@GLIBC_2.2.5                                  /usr/lib/gcc/x86_64-linux-gnu/4.9/../../../x86_64-linux-gnu/libm.so
nanl                                              /usr/lib/gcc/x86_64-linux-gnu/4.9/../../../x86_64-linux-gnu/libm.so
nanl@@GLIBC_2.2.5                                 /usr/lib/gcc/x86_64-linux-gnu/4.9/../../../x86_64-linux-gnu/libm.so
nanl@GLIBC_2.2.5                                  /usr/lib/gcc/x86_64-linux-gnu/4.9/../../../x86_64-linux-gnu/libm.so
nanosleep                                         /lib/x86_64-linux-gnu/libpthread.so.0
nanosleep@@GLIBC_2.2.5                            /lib/x86_64-linux-gnu/libpthread.so.0
                                                  /lib/x86_64-linux-gnu/libc.so.6
nanosleep@GLIBC_2.2.5                             /lib/x86_64-linux-gnu/libpthread.so.0
                                                  /home/xyh/test/POFSwitch+DPDK+V1.0.5.3/dpdk-2.2.0/x86_64-native-linuxapp-gcc/lib/libdpdk.so
nb_cfg_lcores                                     testpmd.o
                                                  config.o
nb_cfg_ports                                      testpmd.o
                                                  config.o
nb_fwd_lcores                                     testpmd.o
                                                  config.o
                                                  cmdline.o
                                                  parameters.o
nb_fwd_ports                                      testpmd.o
                                                  config.o
                                                  parameters.o
nb_fwd_streams                                    testpmd.o
nb_lcores                                         testpmd.o
                                                  parameters.o
nb_peer_eth_addrs                                 testpmd.o
                                                  parameters.o
nb_pkt_per_burst                                  testpmd.o
                                                  icmpecho.o
                                                  csumonly.o
                                                  txonly.o
                                                  rxonly.o
                                                  flowgen.o
                                                  macswap.o
                                                  macfwd-retry.o
                                                  macfwd.o
                                                  iofwd.o
                                                  config.o
                                                  cmdline.o
                                                  parameters.o
nb_ports                                          testpmd.o
                                                  config.o
                                                  cmdline.o
                                                  parameters.o
nb_rx_queue_stats_mappings                        testpmd.o
                                                  config.o
                                                  parameters.o
nb_rxd                                            testpmd.o
                                                  config.o
                                                  cmdline.o
                                                  parameters.o
nb_rxq                                            testpmd.o
                                                  config.o
                                                  cmdline.o
                                                  parameters.o
nb_tx_queue_stats_mappings                        testpmd.o
                                                  config.o
                                                  parameters.o
nb_txd                                            testpmd.o
                                                  config.o
                                                  cmdline.o
                                                  parameters.o
nb_txq                                            testpmd.o
                                                  config.o
                                                  cmdline.o
                                                  parameters.o
nearbyint                                         /usr/lib/gcc/x86_64-linux-gnu/4.9/../../../x86_64-linux-gnu/libm.so
nearbyint@@GLIBC_2.2.5                            /usr/lib/gcc/x86_64-linux-gnu/4.9/../../../x86_64-linux-gnu/libm.so
nearbyint@GLIBC_2.2.5                             /usr/lib/gcc/x86_64-linux-gnu/4.9/../../../x86_64-linux-gnu/libm.so
nearbyintf                                        /usr/lib/gcc/x86_64-linux-gnu/4.9/../../../x86_64-linux-gnu/libm.so
nearbyintf@@GLIBC_2.2.5                           /usr/lib/gcc/x86_64-linux-gnu/4.9/../../../x86_64-linux-gnu/libm.so
nearbyintf@GLIBC_2.2.5                            /usr/lib/gcc/x86_64-linux-gnu/4.9/../../../x86_64-linux-gnu/libm.so
nearbyintl                                        /usr/lib/gcc/x86_64-linux-gnu/4.9/../../../x86_64-linux-gnu/libm.so
nearbyintl@@GLIBC_2.2.5                           /usr/lib/gcc/x86_64-linux-gnu/4.9/../../../x86_64-linux-gnu/libm.so
nearbyintl@GLIBC_2.2.5                            /usr/lib/gcc/x86_64-linux-gnu/4.9/../../../x86_64-linux-gnu/libm.so
newlocale                                         /lib/x86_64-linux-gnu/libc.so.6
newlocale@@GLIBC_2.3                              /lib/x86_64-linux-gnu/libc.so.6
newlocale@GLIBC_2.3                               /lib/x86_64-linux-gnu/libc.so.6
nextafter                                         /usr/lib/gcc/x86_64-linux-gnu/4.9/../../../x86_64-linux-gnu/libm.so
nextafter@@GLIBC_2.2.5                            /usr/lib/gcc/x86_64-linux-gnu/4.9/../../../x86_64-linux-gnu/libm.so
nextafter@GLIBC_2.2.5                             /usr/lib/gcc/x86_64-linux-gnu/4.9/../../../x86_64-linux-gnu/libm.so
nextafterf                                        /usr/lib/gcc/x86_64-linux-gnu/4.9/../../../x86_64-linux-gnu/libm.so
nextafterf@@GLIBC_2.2.5                           /usr/lib/gcc/x86_64-linux-gnu/4.9/../../../x86_64-linux-gnu/libm.so
nextafterf@GLIBC_2.2.5                            /usr/lib/gcc/x86_64-linux-gnu/4.9/../../../x86_64-linux-gnu/libm.so
nextafterl                                        /usr/lib/gcc/x86_64-linux-gnu/4.9/../../../x86_64-linux-gnu/libm.so
nextafterl@@GLIBC_2.2.5                           /usr/lib/gcc/x86_64-linux-gnu/4.9/../../../x86_64-linux-gnu/libm.so
nextafterl@GLIBC_2.2.5                            /usr/lib/gcc/x86_64-linux-gnu/4.9/../../../x86_64-linux-gnu/libm.so
nexttoward                                        /usr/lib/gcc/x86_64-linux-gnu/4.9/../../../x86_64-linux-gnu/libm.so
nexttoward@@GLIBC_2.2.5                           /usr/lib/gcc/x86_64-linux-gnu/4.9/../../../x86_64-linux-gnu/libm.so
nexttoward@GLIBC_2.2.5                            /usr/lib/gcc/x86_64-linux-gnu/4.9/../../../x86_64-linux-gnu/libm.so
nexttowardf                                       /usr/lib/gcc/x86_64-linux-gnu/4.9/../../../x86_64-linux-gnu/libm.so
nexttowardf@@GLIBC_2.2.5                          /usr/lib/gcc/x86_64-linux-gnu/4.9/../../../x86_64-linux-gnu/libm.so
nexttowardf@GLIBC_2.2.5                           /usr/lib/gcc/x86_64-linux-gnu/4.9/../../../x86_64-linux-gnu/libm.so
nexttowardl                                       /usr/lib/gcc/x86_64-linux-gnu/4.9/../../../x86_64-linux-gnu/libm.so
nexttowardl@@GLIBC_2.2.5                          /usr/lib/gcc/x86_64-linux-gnu/4.9/../../../x86_64-linux-gnu/libm.so
nexttowardl@GLIBC_2.2.5                           /usr/lib/gcc/x86_64-linux-gnu/4.9/../../../x86_64-linux-gnu/libm.so
ngettext                                          /lib/x86_64-linux-gnu/libc.so.6
ngettext@@GLIBC_2.2.5                             /lib/x86_64-linux-gnu/libc.so.6
ngettext@GLIBC_2.2.5                              /lib/x86_64-linux-gnu/libc.so.6
nic_stats_clear                                   config.o
                                                  cmdline.o
nic_stats_display                                 config.o
                                                  cmdline.o
nic_stats_mapping_display                         config.o
                                                  cmdline.o
nic_xstats_clear                                  config.o
                                                  cmdline.o
nic_xstats_display                                config.o
                                                  cmdline.o
nl_langinfo_l                                     /lib/x86_64-linux-gnu/libc.so.6
nl_langinfo_l@@GLIBC_2.3                          /lib/x86_64-linux-gnu/libc.so.6
nl_langinfo_l@GLIBC_2.3                           /lib/x86_64-linux-gnu/libc.so.6
no_flush_rx                                       testpmd.o
                                                  cmdline.o
                                                  parameters.o
no_link_check                                     testpmd.o
                                                  cmdline.o
                                                  parameters.o
nrand48_r                                         /lib/x86_64-linux-gnu/libc.so.6
nrand48_r@@GLIBC_2.2.5                            /lib/x86_64-linux-gnu/libc.so.6
nrand48_r@GLIBC_2.2.5                             /lib/x86_64-linux-gnu/libc.so.6
ntohl                                             /lib/x86_64-linux-gnu/libc.so.6
ntohl@@GLIBC_2.2.5                                /lib/x86_64-linux-gnu/libc.so.6
ntohl@GLIBC_2.2.5                                 /lib/x86_64-linux-gnu/libc.so.6
ntohs                                             /lib/x86_64-linux-gnu/libc.so.6
ntohs@@GLIBC_2.2.5                                /lib/x86_64-linux-gnu/libc.so.6
ntohs@GLIBC_2.2.5                                 /lib/x86_64-linux-gnu/libc.so.6
ntp_adjtime                                       /lib/x86_64-linux-gnu/libc.so.6
ntp_adjtime@@GLIBC_2.2.5                          /lib/x86_64-linux-gnu/libc.so.6
ntp_adjtime@GLIBC_2.2.5                           /lib/x86_64-linux-gnu/libc.so.6
numa_support                                      testpmd.o
                                                  config.o
                                                  parameters.o
obstack_printf                                    /lib/x86_64-linux-gnu/libc.so.6
obstack_printf@@GLIBC_2.2.5                       /lib/x86_64-linux-gnu/libc.so.6
obstack_printf@GLIBC_2.2.5                        /lib/x86_64-linux-gnu/libc.so.6
obstack_vprintf                                   /lib/x86_64-linux-gnu/libc.so.6
obstack_vprintf@@GLIBC_2.2.5                      /lib/x86_64-linux-gnu/libc.so.6
obstack_vprintf@GLIBC_2.2.5                       /lib/x86_64-linux-gnu/libc.so.6
on_exit                                           /lib/x86_64-linux-gnu/libc.so.6
on_exit@@GLIBC_2.2.5                              /lib/x86_64-linux-gnu/libc.so.6
on_exit@GLIBC_2.2.5                               /lib/x86_64-linux-gnu/libc.so.6
open                                              /lib/x86_64-linux-gnu/libpthread.so.0
                                                  mempool_anon.o
open64                                            /lib/x86_64-linux-gnu/libpthread.so.0
open64@@GLIBC_2.2.5                               /lib/x86_64-linux-gnu/libpthread.so.0
                                                  /lib/x86_64-linux-gnu/libc.so.6
open64@GLIBC_2.2.5                                /lib/x86_64-linux-gnu/libpthread.so.0
                                                  /home/xyh/test/POFSwitch+DPDK+V1.0.5.3/dpdk-2.2.0/x86_64-native-linuxapp-gcc/lib/libdpdk.so
open@@GLIBC_2.2.5                                 /lib/x86_64-linux-gnu/libpthread.so.0
                                                  /lib/x86_64-linux-gnu/libc.so.6
open@GLIBC_2.2.5                                  /lib/x86_64-linux-gnu/libpthread.so.0
                                                  /usr/lib/gcc/x86_64-linux-gnu/4.9/../../../x86_64-linux-gnu/librt.so
                                                  /home/xyh/test/POFSwitch+DPDK+V1.0.5.3/dpdk-2.2.0/x86_64-native-linuxapp-gcc/lib/libdpdk.so
openat                                            /lib/x86_64-linux-gnu/libc.so.6
openat64                                          /lib/x86_64-linux-gnu/libc.so.6
openat64@@GLIBC_2.4                               /lib/x86_64-linux-gnu/libc.so.6
openat64@GLIBC_2.4                                /lib/x86_64-linux-gnu/libc.so.6
openat@@GLIBC_2.4                                 /lib/x86_64-linux-gnu/libc.so.6
openat@GLIBC_2.4                                  /lib/x86_64-linux-gnu/libc.so.6
                                                  /home/xyh/test/POFSwitch+DPDK+V1.0.5.3/dpdk-2.2.0/x86_64-native-linuxapp-gcc/lib/libdpdk.so
opendir                                           /lib/x86_64-linux-gnu/libc.so.6
opendir@@GLIBC_2.2.5                              /lib/x86_64-linux-gnu/libc.so.6
opendir@GLIBC_2.2.5                               /lib/x86_64-linux-gnu/libc.so.6
                                                  /home/xyh/test/POFSwitch+DPDK+V1.0.5.3/dpdk-2.2.0/x86_64-native-linuxapp-gcc/lib/libdpdk.so
param_total_num_mbufs                             testpmd.o
                                                  parameters.o
parse_item_list                                   cmdline.o
                                                  parameters.o
pathconf                                          /lib/x86_64-linux-gnu/libc.so.6
pathconf@@GLIBC_2.2.5                             /lib/x86_64-linux-gnu/libc.so.6
pathconf@GLIBC_2.2.5                              /lib/x86_64-linux-gnu/libc.so.6
pause                                             /lib/x86_64-linux-gnu/libpthread.so.0
pause@@GLIBC_2.2.5                                /lib/x86_64-linux-gnu/libpthread.so.0
                                                  /lib/x86_64-linux-gnu/libc.so.6
pause@GLIBC_2.2.5                                 /lib/x86_64-linux-gnu/libpthread.so.0
peer_eth_addrs                                    testpmd.o
                                                  csumonly.o
                                                  txonly.o
                                                  macfwd-retry.o
                                                  macfwd.o
                                                  config.o
                                                  parameters.o
perror                                            /lib/x86_64-linux-gnu/libc.so.6
                                                  parameters.o
perror@@GLIBC_2.2.5                               /lib/x86_64-linux-gnu/libc.so.6
perror@GLIBC_2.2.5                                /lib/x86_64-linux-gnu/libc.so.6
personality                                       /lib/x86_64-linux-gnu/libc.so.6
personality@@GLIBC_2.2.5                          /lib/x86_64-linux-gnu/libc.so.6
personality@GLIBC_2.2.5                           /lib/x86_64-linux-gnu/libc.so.6
pipe                                              /lib/x86_64-linux-gnu/libc.so.6
pipe2                                             /lib/x86_64-linux-gnu/libc.so.6
pipe2@@GLIBC_2.9                                  /lib/x86_64-linux-gnu/libc.so.6
pipe2@GLIBC_2.9                                   /lib/x86_64-linux-gnu/libc.so.6
pipe@@GLIBC_2.2.5                                 /lib/x86_64-linux-gnu/libc.so.6
pipe@GLIBC_2.2.5                                  /lib/x86_64-linux-gnu/libc.so.6
                                                  /home/xyh/test/POFSwitch+DPDK+V1.0.5.3/dpdk-2.2.0/x86_64-native-linuxapp-gcc/lib/libdpdk.so
pmd_test_exit                                     testpmd.o
                                                  cmdline.o
poll                                              /lib/x86_64-linux-gnu/libc.so.6
poll@@GLIBC_2.2.5                                 /lib/x86_64-linux-gnu/libc.so.6
poll@GLIBC_2.2.5                                  /lib/x86_64-linux-gnu/libc.so.6
                                                  /home/xyh/test/POFSwitch+DPDK+V1.0.5.3/dpdk-2.2.0/x86_64-native-linuxapp-gcc/lib/libdpdk.so
port_dcb_info_display                             config.o
                                                  cmdline.o
port_id_is_invalid                                config.o
                                                  cmdline.o
                                                  parameters.o
                                                  testpmd.o
port_infos_display                                config.o
                                                  cmdline.o
port_is_started                                   testpmd.o
                                                  cmdline.o
port_mtu_set                                      config.o
                                                  cmdline.o
port_numa                                         icmpecho.o
                                                  csumonly.o
                                                  txonly.o
                                                  rxonly.o
                                                  flowgen.o
                                                  macswap.o
                                                  macfwd-retry.o
                                                  macfwd.o
                                                  iofwd.o
                                                  config.o
                                                  cmdline.o
                                                  parameters.o
                                                  testpmd.o
port_reg_bit_display                              config.o
                                                  cmdline.o
port_reg_bit_field_display                        config.o
                                                  cmdline.o
port_reg_bit_field_set                            config.o
                                                  cmdline.o
port_reg_bit_set                                  config.o
                                                  cmdline.o
port_reg_display                                  config.o
                                                  cmdline.o
port_reg_set                                      config.o
                                                  cmdline.o
port_rss_hash_conf_show                           config.o
                                                  cmdline.o
port_rss_hash_key_update                          config.o
                                                  cmdline.o
port_rss_reta_info                                config.o
                                                  cmdline.o
port_topology                                     testpmd.o
                                                  config.o
                                                  parameters.o
ports                                             testpmd.o
                                                  icmpecho.o
                                                  csumonly.o
                                                  txonly.o
                                                  flowgen.o
                                                  macswap.o
                                                  macfwd-retry.o
                                                  macfwd.o
                                                  config.o
                                                  cmdline.o
                                                  parameters.o
posix_fadvise64                                   /lib/x86_64-linux-gnu/libc.so.6
posix_fadvise64@@GLIBC_2.2.5                      /lib/x86_64-linux-gnu/libc.so.6
posix_fadvise64@GLIBC_2.2.5                       /lib/x86_64-linux-gnu/libc.so.6
posix_fallocate64                                 /lib/x86_64-linux-gnu/libc.so.6
posix_fallocate64@@GLIBC_2.2.5                    /lib/x86_64-linux-gnu/libc.so.6
posix_fallocate64@GLIBC_2.2.5                     /lib/x86_64-linux-gnu/libc.so.6
posix_memalign                                    /lib/x86_64-linux-gnu/libc.so.6
posix_memalign@@GLIBC_2.2.5                       /lib/x86_64-linux-gnu/libc.so.6
posix_memalign@GLIBC_2.2.5                        /lib/x86_64-linux-gnu/libc.so.6
posix_openpt                                      /lib/x86_64-linux-gnu/libc.so.6
posix_openpt@@GLIBC_2.2.5                         /lib/x86_64-linux-gnu/libc.so.6
posix_openpt@GLIBC_2.2.5                          /lib/x86_64-linux-gnu/libc.so.6
pow                                               /usr/lib/gcc/x86_64-linux-gnu/4.9/../../../x86_64-linux-gnu/libm.so
                                                  /home/xyh/test/POFSwitch+DPDK+V1.0.5.3/dpdk-2.2.0/x86_64-native-linuxapp-gcc/lib/libdpdk.so
pow10                                             /usr/lib/gcc/x86_64-linux-gnu/4.9/../../../x86_64-linux-gnu/libm.so
pow10@@GLIBC_2.2.5                                /usr/lib/gcc/x86_64-linux-gnu/4.9/../../../x86_64-linux-gnu/libm.so
pow10@GLIBC_2.2.5                                 /usr/lib/gcc/x86_64-linux-gnu/4.9/../../../x86_64-linux-gnu/libm.so
pow10f                                            /usr/lib/gcc/x86_64-linux-gnu/4.9/../../../x86_64-linux-gnu/libm.so
pow10f@@GLIBC_2.2.5                               /usr/lib/gcc/x86_64-linux-gnu/4.9/../../../x86_64-linux-gnu/libm.so
pow10f@GLIBC_2.2.5                                /usr/lib/gcc/x86_64-linux-gnu/4.9/../../../x86_64-linux-gnu/libm.so
pow10l                                            /usr/lib/gcc/x86_64-linux-gnu/4.9/../../../x86_64-linux-gnu/libm.so
pow10l@@GLIBC_2.2.5                               /usr/lib/gcc/x86_64-linux-gnu/4.9/../../../x86_64-linux-gnu/libm.so
pow10l@GLIBC_2.2.5                                /usr/lib/gcc/x86_64-linux-gnu/4.9/../../../x86_64-linux-gnu/libm.so
pow@@GLIBC_2.2.5                                  /usr/lib/gcc/x86_64-linux-gnu/4.9/../../../x86_64-linux-gnu/libm.so
pow@GLIBC_2.2.5                                   /usr/lib/gcc/x86_64-linux-gnu/4.9/../../../x86_64-linux-gnu/libm.so
powf                                              /usr/lib/gcc/x86_64-linux-gnu/4.9/../../../x86_64-linux-gnu/libm.so
powf@@GLIBC_2.2.5                                 /usr/lib/gcc/x86_64-linux-gnu/4.9/../../../x86_64-linux-gnu/libm.so
powf@GLIBC_2.2.5                                  /usr/lib/gcc/x86_64-linux-gnu/4.9/../../../x86_64-linux-gnu/libm.so
powl                                              /usr/lib/gcc/x86_64-linux-gnu/4.9/../../../x86_64-linux-gnu/libm.so
powl@@GLIBC_2.2.5                                 /usr/lib/gcc/x86_64-linux-gnu/4.9/../../../x86_64-linux-gnu/libm.so
powl@GLIBC_2.2.5                                  /usr/lib/gcc/x86_64-linux-gnu/4.9/../../../x86_64-linux-gnu/libm.so
prctl                                             /lib/x86_64-linux-gnu/libc.so.6
prctl@@GLIBC_2.2.5                                /lib/x86_64-linux-gnu/libc.so.6
prctl@GLIBC_2.2.5                                 /lib/x86_64-linux-gnu/libc.so.6
                                                  /lib/x86_64-linux-gnu/libpthread.so.0
pread                                             /lib/x86_64-linux-gnu/libpthread.so.0
                                                  mempool_anon.o
pread64                                           /lib/x86_64-linux-gnu/libpthread.so.0
pread64@@GLIBC_2.2.5                              /lib/x86_64-linux-gnu/libpthread.so.0
                                                  /lib/x86_64-linux-gnu/libc.so.6
pread64@GLIBC_2.2.5                               /lib/x86_64-linux-gnu/libpthread.so.0
                                                  /home/xyh/test/POFSwitch+DPDK+V1.0.5.3/dpdk-2.2.0/x86_64-native-linuxapp-gcc/lib/libdpdk.so
pread@@GLIBC_2.2.5                                /lib/x86_64-linux-gnu/libpthread.so.0
                                                  /lib/x86_64-linux-gnu/libc.so.6
pread@GLIBC_2.2.5                                 /lib/x86_64-linux-gnu/libpthread.so.0
                                                  /usr/lib/gcc/x86_64-linux-gnu/4.9/../../../x86_64-linux-gnu/librt.so
                                                  /home/xyh/test/POFSwitch+DPDK+V1.0.5.3/dpdk-2.2.0/x86_64-native-linuxapp-gcc/lib/libdpdk.so
prlimit64                                         /lib/x86_64-linux-gnu/libc.so.6
prlimit64@@GLIBC_2.13                             /lib/x86_64-linux-gnu/libc.so.6
prlimit64@GLIBC_2.13                              /lib/x86_64-linux-gnu/libc.so.6
profil                                            /lib/x86_64-linux-gnu/libc.so.6
profil@@GLIBC_2.2.5                               /lib/x86_64-linux-gnu/libc.so.6
profil@GLIBC_2.2.5                                /lib/x86_64-linux-gnu/libc.so.6
program_invocation_name                           /lib/x86_64-linux-gnu/libc.so.6
program_invocation_name@@GLIBC_2.2.5              /lib/x86_64-linux-gnu/libc.so.6
program_invocation_name@GLIBC_2.2.5               /lib/x86_64-linux-gnu/libc.so.6
program_invocation_short_name                     /lib/x86_64-linux-gnu/libc.so.6
program_invocation_short_name@@GLIBC_2.2.5        /lib/x86_64-linux-gnu/libc.so.6
program_invocation_short_name@GLIBC_2.2.5         /lib/x86_64-linux-gnu/libc.so.6
prompt                                            cmdline.o
                                                  testpmd.o
pselect                                           /lib/x86_64-linux-gnu/libc.so.6
pselect@@GLIBC_2.2.5                              /lib/x86_64-linux-gnu/libc.so.6
pselect@GLIBC_2.2.5                               /lib/x86_64-linux-gnu/libc.so.6
pthread_mutex_consistent_np                       /lib/x86_64-linux-gnu/libpthread.so.0
pthread_mutex_consistent_np@@GLIBC_2.4            /lib/x86_64-linux-gnu/libpthread.so.0
pthread_mutex_consistent_np@GLIBC_2.4             /lib/x86_64-linux-gnu/libpthread.so.0
pthread_mutexattr_getkind_np                      /lib/x86_64-linux-gnu/libpthread.so.0
pthread_mutexattr_getkind_np@@GLIBC_2.2.5         /lib/x86_64-linux-gnu/libpthread.so.0
pthread_mutexattr_getkind_np@GLIBC_2.2.5          /lib/x86_64-linux-gnu/libpthread.so.0
pthread_mutexattr_getrobust_np                    /lib/x86_64-linux-gnu/libpthread.so.0
pthread_mutexattr_getrobust_np@@GLIBC_2.4         /lib/x86_64-linux-gnu/libpthread.so.0
pthread_mutexattr_getrobust_np@GLIBC_2.4          /lib/x86_64-linux-gnu/libpthread.so.0
pthread_mutexattr_setkind_np                      /lib/x86_64-linux-gnu/libpthread.so.0
pthread_mutexattr_setkind_np@@GLIBC_2.2.5         /lib/x86_64-linux-gnu/libpthread.so.0
pthread_mutexattr_setkind_np@GLIBC_2.2.5          /lib/x86_64-linux-gnu/libpthread.so.0
pthread_mutexattr_setrobust_np                    /lib/x86_64-linux-gnu/libpthread.so.0
pthread_mutexattr_setrobust_np@@GLIBC_2.4         /lib/x86_64-linux-gnu/libpthread.so.0
pthread_mutexattr_setrobust_np@GLIBC_2.4          /lib/x86_64-linux-gnu/libpthread.so.0
pthread_once                                      /lib/x86_64-linux-gnu/libpthread.so.0
                                                  /usr/lib/gcc/x86_64-linux-gnu/4.9/libgcc_s.so
pthread_once@@GLIBC_2.2.5                         /lib/x86_64-linux-gnu/libpthread.so.0
pthread_once@GLIBC_2.2.5                          /lib/x86_64-linux-gnu/libpthread.so.0
                                                  /usr/lib/gcc/x86_64-linux-gnu/4.9/../../../x86_64-linux-gnu/librt.so
pthread_rwlock_rdlock                             /lib/x86_64-linux-gnu/libpthread.so.0
pthread_rwlock_rdlock@@GLIBC_2.2.5                /lib/x86_64-linux-gnu/libpthread.so.0
pthread_rwlock_rdlock@GLIBC_2.2.5                 /lib/x86_64-linux-gnu/libpthread.so.0
pthread_rwlock_unlock                             /lib/x86_64-linux-gnu/libpthread.so.0
pthread_rwlock_unlock@@GLIBC_2.2.5                /lib/x86_64-linux-gnu/libpthread.so.0
pthread_rwlock_unlock@GLIBC_2.2.5                 /lib/x86_64-linux-gnu/libpthread.so.0
pthread_rwlock_wrlock                             /lib/x86_64-linux-gnu/libpthread.so.0
pthread_rwlock_wrlock@@GLIBC_2.2.5                /lib/x86_64-linux-gnu/libpthread.so.0
pthread_rwlock_wrlock@GLIBC_2.2.5                 /lib/x86_64-linux-gnu/libpthread.so.0
ptsname_r                                         /lib/x86_64-linux-gnu/libc.so.6
ptsname_r@@GLIBC_2.2.5                            /lib/x86_64-linux-gnu/libc.so.6
ptsname_r@GLIBC_2.2.5                             /lib/x86_64-linux-gnu/libc.so.6
putc                                              /lib/x86_64-linux-gnu/libc.so.6
putc@@GLIBC_2.2.5                                 /lib/x86_64-linux-gnu/libc.so.6
putc@GLIBC_2.2.5                                  /lib/x86_64-linux-gnu/libc.so.6
putchar                                           /lib/x86_64-linux-gnu/libc.so.6
                                                  icmpecho.o
                                                  csumonly.o
                                                  rxonly.o
                                                  config.o
                                                  cmdline.o
                                                  testpmd.o
putchar@@GLIBC_2.2.5                              /lib/x86_64-linux-gnu/libc.so.6
putchar@GLIBC_2.2.5                               /lib/x86_64-linux-gnu/libc.so.6
puts                                              /lib/x86_64-linux-gnu/libc.so.6
                                                  csumonly.o
                                                  rxonly.o
                                                  config.o
                                                  cmdline.o
                                                  parameters.o
                                                  testpmd.o
puts@@GLIBC_2.2.5                                 /lib/x86_64-linux-gnu/libc.so.6
puts@GLIBC_2.2.5                                  /lib/x86_64-linux-gnu/libc.so.6
                                                  /home/xyh/test/POFSwitch+DPDK+V1.0.5.3/dpdk-2.2.0/x86_64-native-linuxapp-gcc/lib/libdpdk.so
pututline                                         /lib/x86_64-linux-gnu/libc.so.6
pututline@@GLIBC_2.2.5                            /lib/x86_64-linux-gnu/libc.so.6
pututline@GLIBC_2.2.5                             /lib/x86_64-linux-gnu/libc.so.6
pvalloc                                           /lib/x86_64-linux-gnu/libc.so.6
pvalloc@@GLIBC_2.2.5                              /lib/x86_64-linux-gnu/libc.so.6
pvalloc@GLIBC_2.2.5                               /lib/x86_64-linux-gnu/libc.so.6
pwrite                                            /lib/x86_64-linux-gnu/libpthread.so.0
pwrite64                                          /lib/x86_64-linux-gnu/libpthread.so.0
pwrite64@@GLIBC_2.2.5                             /lib/x86_64-linux-gnu/libpthread.so.0
                                                  /lib/x86_64-linux-gnu/libc.so.6
pwrite64@GLIBC_2.2.5                              /lib/x86_64-linux-gnu/libpthread.so.0
                                                  /home/xyh/test/POFSwitch+DPDK+V1.0.5.3/dpdk-2.2.0/x86_64-native-linuxapp-gcc/lib/libdpdk.so
pwrite@@GLIBC_2.2.5                               /lib/x86_64-linux-gnu/libpthread.so.0
                                                  /lib/x86_64-linux-gnu/libc.so.6
pwrite@GLIBC_2.2.5                                /lib/x86_64-linux-gnu/libpthread.so.0
                                                  /home/xyh/test/POFSwitch+DPDK+V1.0.5.3/dpdk-2.2.0/x86_64-native-linuxapp-gcc/lib/libdpdk.so
qsort_r                                           /lib/x86_64-linux-gnu/libc.so.6
qsort_r@@GLIBC_2.8                                /lib/x86_64-linux-gnu/libc.so.6
qsort_r@GLIBC_2.8                                 /lib/x86_64-linux-gnu/libc.so.6
random                                            /lib/x86_64-linux-gnu/libc.so.6
                                                  csumonly.o
                                                  txonly.o
random@@GLIBC_2.2.5                               /lib/x86_64-linux-gnu/libc.so.6
random@GLIBC_2.2.5                                /lib/x86_64-linux-gnu/libc.so.6
random_r                                          /lib/x86_64-linux-gnu/libc.so.6
random_r@@GLIBC_2.2.5                             /lib/x86_64-linux-gnu/libc.so.6
random_r@GLIBC_2.2.5                              /lib/x86_64-linux-gnu/libc.so.6
rawmemchr                                         /lib/x86_64-linux-gnu/libc.so.6
rawmemchr@@GLIBC_2.2.5                            /lib/x86_64-linux-gnu/libc.so.6
rawmemchr@GLIBC_2.2.5                             /lib/x86_64-linux-gnu/libc.so.6
re_comp                                           /lib/x86_64-linux-gnu/libc.so.6
re_comp@@GLIBC_2.2.5                              /lib/x86_64-linux-gnu/libc.so.6
re_comp@GLIBC_2.2.5                               /lib/x86_64-linux-gnu/libc.so.6
re_compile_fastmap                                /lib/x86_64-linux-gnu/libc.so.6
re_compile_fastmap@@GLIBC_2.2.5                   /lib/x86_64-linux-gnu/libc.so.6
re_compile_fastmap@GLIBC_2.2.5                    /lib/x86_64-linux-gnu/libc.so.6
re_compile_pattern                                /lib/x86_64-linux-gnu/libc.so.6
re_compile_pattern@@GLIBC_2.2.5                   /lib/x86_64-linux-gnu/libc.so.6
re_compile_pattern@GLIBC_2.2.5                    /lib/x86_64-linux-gnu/libc.so.6
re_exec                                           /lib/x86_64-linux-gnu/libc.so.6
re_exec@@GLIBC_2.2.5                              /lib/x86_64-linux-gnu/libc.so.6
re_exec@GLIBC_2.2.5                               /lib/x86_64-linux-gnu/libc.so.6
re_match                                          /lib/x86_64-linux-gnu/libc.so.6
re_match@@GLIBC_2.2.5                             /lib/x86_64-linux-gnu/libc.so.6
re_match@GLIBC_2.2.5                              /lib/x86_64-linux-gnu/libc.so.6
re_match_2                                        /lib/x86_64-linux-gnu/libc.so.6
re_match_2@@GLIBC_2.2.5                           /lib/x86_64-linux-gnu/libc.so.6
re_match_2@GLIBC_2.2.5                            /lib/x86_64-linux-gnu/libc.so.6
re_search                                         /lib/x86_64-linux-gnu/libc.so.6
re_search@@GLIBC_2.2.5                            /lib/x86_64-linux-gnu/libc.so.6
re_search@GLIBC_2.2.5                             /lib/x86_64-linux-gnu/libc.so.6
re_search_2                                       /lib/x86_64-linux-gnu/libc.so.6
re_search_2@@GLIBC_2.2.5                          /lib/x86_64-linux-gnu/libc.so.6
re_search_2@GLIBC_2.2.5                           /lib/x86_64-linux-gnu/libc.so.6
re_set_registers                                  /lib/x86_64-linux-gnu/libc.so.6
re_set_registers@@GLIBC_2.2.5                     /lib/x86_64-linux-gnu/libc.so.6
re_set_registers@GLIBC_2.2.5                      /lib/x86_64-linux-gnu/libc.so.6
re_set_syntax                                     /lib/x86_64-linux-gnu/libc.so.6
re_set_syntax@@GLIBC_2.2.5                        /lib/x86_64-linux-gnu/libc.so.6
re_set_syntax@GLIBC_2.2.5                         /lib/x86_64-linux-gnu/libc.so.6
read                                              /lib/x86_64-linux-gnu/libpthread.so.0
                                                  testpmd.o
read@@GLIBC_2.2.5                                 /lib/x86_64-linux-gnu/libpthread.so.0
                                                  /lib/x86_64-linux-gnu/libc.so.6
read@GLIBC_2.2.5                                  /lib/x86_64-linux-gnu/libpthread.so.0
                                                  /usr/lib/gcc/x86_64-linux-gnu/4.9/../../../x86_64-linux-gnu/librt.so
                                                  /home/xyh/test/POFSwitch+DPDK+V1.0.5.3/dpdk-2.2.0/x86_64-native-linuxapp-gcc/lib/libdpdk.so
readahead                                         /lib/x86_64-linux-gnu/libc.so.6
readahead@@GLIBC_2.3                              /lib/x86_64-linux-gnu/libc.so.6
readahead@GLIBC_2.3                               /lib/x86_64-linux-gnu/libc.so.6
readdir                                           /lib/x86_64-linux-gnu/libc.so.6
readdir64                                         /lib/x86_64-linux-gnu/libc.so.6
readdir64@@GLIBC_2.2.5                            /lib/x86_64-linux-gnu/libc.so.6
readdir64@GLIBC_2.2.5                             /lib/x86_64-linux-gnu/libc.so.6
readdir64_r                                       /lib/x86_64-linux-gnu/libc.so.6
readdir64_r@@GLIBC_2.2.5                          /lib/x86_64-linux-gnu/libc.so.6
readdir64_r@GLIBC_2.2.5                           /lib/x86_64-linux-gnu/libc.so.6
readdir@@GLIBC_2.2.5                              /lib/x86_64-linux-gnu/libc.so.6
readdir@GLIBC_2.2.5                               /lib/x86_64-linux-gnu/libc.so.6
                                                  /home/xyh/test/POFSwitch+DPDK+V1.0.5.3/dpdk-2.2.0/x86_64-native-linuxapp-gcc/lib/libdpdk.so
readdir_r                                         /lib/x86_64-linux-gnu/libc.so.6
readdir_r@@GLIBC_2.2.5                            /lib/x86_64-linux-gnu/libc.so.6
readdir_r@GLIBC_2.2.5                             /lib/x86_64-linux-gnu/libc.so.6
readlink                                          /lib/x86_64-linux-gnu/libc.so.6
readlink@@GLIBC_2.2.5                             /lib/x86_64-linux-gnu/libc.so.6
readlink@GLIBC_2.2.5                              /lib/x86_64-linux-gnu/libc.so.6
                                                  /home/xyh/test/POFSwitch+DPDK+V1.0.5.3/dpdk-2.2.0/x86_64-native-linuxapp-gcc/lib/libdpdk.so
readv                                             /lib/x86_64-linux-gnu/libc.so.6
readv@@GLIBC_2.2.5                                /lib/x86_64-linux-gnu/libc.so.6
readv@GLIBC_2.2.5                                 /lib/x86_64-linux-gnu/libc.so.6
realloc                                           /lib/x86_64-linux-gnu/libc.so.6
                                                  config.o
realloc@@GLIBC_2.2.5                              /lib/x86_64-linux-gnu/libc.so.6
                                                  /lib/x86_64-linux-gnu/ld-linux-x86-64.so.2
realloc@GLIBC_2.2.5                               /lib/x86_64-linux-gnu/libc.so.6
                                                  /lib/x86_64-linux-gnu/libpthread.so.0
                                                  /usr/lib/gcc/x86_64-linux-gnu/4.9/libgcc_s.so
                                                  /usr/lib/gcc/x86_64-linux-gnu/4.9/../../../x86_64-linux-gnu/librt.so
                                                  /home/xyh/test/POFSwitch+DPDK+V1.0.5.3/dpdk-2.2.0/x86_64-native-linuxapp-gcc/lib/libdpdk.so
reconfig                                          testpmd.o
                                                  cmdline.o
recv                                              /lib/x86_64-linux-gnu/libpthread.so.0
recv@@GLIBC_2.2.5                                 /lib/x86_64-linux-gnu/libpthread.so.0
                                                  /lib/x86_64-linux-gnu/libc.so.6
recv@GLIBC_2.2.5                                  /lib/x86_64-linux-gnu/libpthread.so.0
                                                  /usr/lib/gcc/x86_64-linux-gnu/4.9/../../../x86_64-linux-gnu/librt.so
recvfrom                                          /lib/x86_64-linux-gnu/libpthread.so.0
recvfrom@@GLIBC_2.2.5                             /lib/x86_64-linux-gnu/libpthread.so.0
                                                  /lib/x86_64-linux-gnu/libc.so.6
recvfrom@GLIBC_2.2.5                              /lib/x86_64-linux-gnu/libpthread.so.0
recvmsg                                           /lib/x86_64-linux-gnu/libpthread.so.0
recvmsg@@GLIBC_2.2.5                              /lib/x86_64-linux-gnu/libpthread.so.0
                                                  /lib/x86_64-linux-gnu/libc.so.6
recvmsg@GLIBC_2.2.5                               /lib/x86_64-linux-gnu/libpthread.so.0
                                                  /home/xyh/test/POFSwitch+DPDK+V1.0.5.3/dpdk-2.2.0/x86_64-native-linuxapp-gcc/lib/libdpdk.so
regcomp                                           /lib/x86_64-linux-gnu/libc.so.6
regcomp@@GLIBC_2.2.5                              /lib/x86_64-linux-gnu/libc.so.6
regcomp@GLIBC_2.2.5                               /lib/x86_64-linux-gnu/libc.so.6
regerror                                          /lib/x86_64-linux-gnu/libc.so.6
regerror@@GLIBC_2.2.5                             /lib/x86_64-linux-gnu/libc.so.6
regerror@GLIBC_2.2.5                              /lib/x86_64-linux-gnu/libc.so.6
regfree                                           /lib/x86_64-linux-gnu/libc.so.6
regfree@@GLIBC_2.2.5                              /lib/x86_64-linux-gnu/libc.so.6
regfree@GLIBC_2.2.5                               /lib/x86_64-linux-gnu/libc.so.6
register_printf_function                          /lib/x86_64-linux-gnu/libc.so.6
register_printf_function@@GLIBC_2.2.5             /lib/x86_64-linux-gnu/libc.so.6
register_printf_function@GLIBC_2.2.5              /lib/x86_64-linux-gnu/libc.so.6
register_printf_modifier                          /lib/x86_64-linux-gnu/libc.so.6
register_printf_modifier@@GLIBC_2.10              /lib/x86_64-linux-gnu/libc.so.6
register_printf_modifier@GLIBC_2.10               /lib/x86_64-linux-gnu/libc.so.6
register_printf_specifier                         /lib/x86_64-linux-gnu/libc.so.6
register_printf_specifier@@GLIBC_2.10             /lib/x86_64-linux-gnu/libc.so.6
register_printf_specifier@GLIBC_2.10              /lib/x86_64-linux-gnu/libc.so.6
register_printf_type                              /lib/x86_64-linux-gnu/libc.so.6
register_printf_type@@GLIBC_2.10                  /lib/x86_64-linux-gnu/libc.so.6
register_printf_type@GLIBC_2.10                   /lib/x86_64-linux-gnu/libc.so.6
remainder                                         /usr/lib/gcc/x86_64-linux-gnu/4.9/../../../x86_64-linux-gnu/libm.so
remainder@@GLIBC_2.2.5                            /usr/lib/gcc/x86_64-linux-gnu/4.9/../../../x86_64-linux-gnu/libm.so
remainder@GLIBC_2.2.5                             /usr/lib/gcc/x86_64-linux-gnu/4.9/../../../x86_64-linux-gnu/libm.so
remainderf                                        /usr/lib/gcc/x86_64-linux-gnu/4.9/../../../x86_64-linux-gnu/libm.so
remainderf@@GLIBC_2.2.5                           /usr/lib/gcc/x86_64-linux-gnu/4.9/../../../x86_64-linux-gnu/libm.so
remainderf@GLIBC_2.2.5                            /usr/lib/gcc/x86_64-linux-gnu/4.9/../../../x86_64-linux-gnu/libm.so
remainderl                                        /usr/lib/gcc/x86_64-linux-gnu/4.9/../../../x86_64-linux-gnu/libm.so
remainderl@@GLIBC_2.2.5                           /usr/lib/gcc/x86_64-linux-gnu/4.9/../../../x86_64-linux-gnu/libm.so
remainderl@GLIBC_2.2.5                            /usr/lib/gcc/x86_64-linux-gnu/4.9/../../../x86_64-linux-gnu/libm.so
remap_file_pages                                  /lib/x86_64-linux-gnu/libc.so.6
remap_file_pages@@GLIBC_2.3.3                     /lib/x86_64-linux-gnu/libc.so.6
remap_file_pages@GLIBC_2.3.3                      /lib/x86_64-linux-gnu/libc.so.6
remquo                                            /usr/lib/gcc/x86_64-linux-gnu/4.9/../../../x86_64-linux-gnu/libm.so
remquo@@GLIBC_2.2.5                               /usr/lib/gcc/x86_64-linux-gnu/4.9/../../../x86_64-linux-gnu/libm.so
remquo@GLIBC_2.2.5                                /usr/lib/gcc/x86_64-linux-gnu/4.9/../../../x86_64-linux-gnu/libm.so
remquof                                           /usr/lib/gcc/x86_64-linux-gnu/4.9/../../../x86_64-linux-gnu/libm.so
remquof@@GLIBC_2.2.5                              /usr/lib/gcc/x86_64-linux-gnu/4.9/../../../x86_64-linux-gnu/libm.so
remquof@GLIBC_2.2.5                               /usr/lib/gcc/x86_64-linux-gnu/4.9/../../../x86_64-linux-gnu/libm.so
remquol                                           /usr/lib/gcc/x86_64-linux-gnu/4.9/../../../x86_64-linux-gnu/libm.so
remquol@@GLIBC_2.2.5                              /usr/lib/gcc/x86_64-linux-gnu/4.9/../../../x86_64-linux-gnu/libm.so
remquol@GLIBC_2.2.5                               /usr/lib/gcc/x86_64-linux-gnu/4.9/../../../x86_64-linux-gnu/libm.so
rewinddir                                         /lib/x86_64-linux-gnu/libc.so.6
rewinddir@@GLIBC_2.2.5                            /lib/x86_64-linux-gnu/libc.so.6
rewinddir@GLIBC_2.2.5                             /lib/x86_64-linux-gnu/libc.so.6
rindex                                            /lib/x86_64-linux-gnu/libc.so.6
rindex@@GLIBC_2.2.5                               /lib/x86_64-linux-gnu/libc.so.6
rindex@GLIBC_2.2.5                                /lib/x86_64-linux-gnu/libc.so.6
rint                                              /usr/lib/gcc/x86_64-linux-gnu/4.9/../../../x86_64-linux-gnu/libm.so
rint@@GLIBC_2.2.5                                 /usr/lib/gcc/x86_64-linux-gnu/4.9/../../../x86_64-linux-gnu/libm.so
rint@GLIBC_2.2.5                                  /usr/lib/gcc/x86_64-linux-gnu/4.9/../../../x86_64-linux-gnu/libm.so
rintf                                             /usr/lib/gcc/x86_64-linux-gnu/4.9/../../../x86_64-linux-gnu/libm.so
rintf@@GLIBC_2.2.5                                /usr/lib/gcc/x86_64-linux-gnu/4.9/../../../x86_64-linux-gnu/libm.so
rintf@GLIBC_2.2.5                                 /usr/lib/gcc/x86_64-linux-gnu/4.9/../../../x86_64-linux-gnu/libm.so
rintl                                             /usr/lib/gcc/x86_64-linux-gnu/4.9/../../../x86_64-linux-gnu/libm.so
rintl@@GLIBC_2.2.5                                /usr/lib/gcc/x86_64-linux-gnu/4.9/../../../x86_64-linux-gnu/libm.so
rintl@GLIBC_2.2.5                                 /usr/lib/gcc/x86_64-linux-gnu/4.9/../../../x86_64-linux-gnu/libm.so
rmdir                                             /lib/x86_64-linux-gnu/libc.so.6
rmdir@@GLIBC_2.2.5                                /lib/x86_64-linux-gnu/libc.so.6
rmdir@GLIBC_2.2.5                                 /lib/x86_64-linux-gnu/libc.so.6
round                                             /usr/lib/gcc/x86_64-linux-gnu/4.9/../../../x86_64-linux-gnu/libm.so
                                                  /home/xyh/test/POFSwitch+DPDK+V1.0.5.3/dpdk-2.2.0/x86_64-native-linuxapp-gcc/lib/libdpdk.so
round@@GLIBC_2.2.5                                /usr/lib/gcc/x86_64-linux-gnu/4.9/../../../x86_64-linux-gnu/libm.so
round@GLIBC_2.2.5                                 /usr/lib/gcc/x86_64-linux-gnu/4.9/../../../x86_64-linux-gnu/libm.so
roundf                                            /usr/lib/gcc/x86_64-linux-gnu/4.9/../../../x86_64-linux-gnu/libm.so
roundf@@GLIBC_2.2.5                               /usr/lib/gcc/x86_64-linux-gnu/4.9/../../../x86_64-linux-gnu/libm.so
roundf@GLIBC_2.2.5                                /usr/lib/gcc/x86_64-linux-gnu/4.9/../../../x86_64-linux-gnu/libm.so
roundl                                            /usr/lib/gcc/x86_64-linux-gnu/4.9/../../../x86_64-linux-gnu/libm.so
roundl@@GLIBC_2.2.5                               /usr/lib/gcc/x86_64-linux-gnu/4.9/../../../x86_64-linux-gnu/libm.so
roundl@GLIBC_2.2.5                                /usr/lib/gcc/x86_64-linux-gnu/4.9/../../../x86_64-linux-gnu/libm.so
rss_hf                                            testpmd.o
                                                  parameters.o
rte_delay_us                                      /home/xyh/test/POFSwitch+DPDK+V1.0.5.3/dpdk-2.2.0/x86_64-native-linuxapp-gcc/lib/libdpdk.so
                                                  macfwd-retry.o
                                                  testpmd.o
rte_delay_us@@DPDK_2.0                            /home/xyh/test/POFSwitch+DPDK+V1.0.5.3/dpdk-2.2.0/x86_64-native-linuxapp-gcc/lib/libdpdk.so
rte_delay_us@DPDK_2.0                             /home/xyh/test/POFSwitch+DPDK+V1.0.5.3/dpdk-2.2.0/x86_64-native-linuxapp-gcc/lib/libdpdk.so
rte_dump_physmem_layout                           /home/xyh/test/POFSwitch+DPDK+V1.0.5.3/dpdk-2.2.0/x86_64-native-linuxapp-gcc/lib/libdpdk.so
                                                  cmdline.o
rte_dump_physmem_layout@@DPDK_2.0                 /home/xyh/test/POFSwitch+DPDK+V1.0.5.3/dpdk-2.2.0/x86_64-native-linuxapp-gcc/lib/libdpdk.so
rte_dump_physmem_layout@DPDK_2.0                  /home/xyh/test/POFSwitch+DPDK+V1.0.5.3/dpdk-2.2.0/x86_64-native-linuxapp-gcc/lib/libdpdk.so
rte_eal_devargs_dump                              /home/xyh/test/POFSwitch+DPDK+V1.0.5.3/dpdk-2.2.0/x86_64-native-linuxapp-gcc/lib/libdpdk.so
                                                  cmdline.o
rte_eal_devargs_dump@@DPDK_2.0                    /home/xyh/test/POFSwitch+DPDK+V1.0.5.3/dpdk-2.2.0/x86_64-native-linuxapp-gcc/lib/libdpdk.so
rte_eal_devargs_dump@DPDK_2.0                     /home/xyh/test/POFSwitch+DPDK+V1.0.5.3/dpdk-2.2.0/x86_64-native-linuxapp-gcc/lib/libdpdk.so
rte_eal_get_configuration                         /home/xyh/test/POFSwitch+DPDK+V1.0.5.3/dpdk-2.2.0/x86_64-native-linuxapp-gcc/lib/libdpdk.so
                                                  config.o
                                                  testpmd.o
rte_eal_get_configuration@@DPDK_2.0               /home/xyh/test/POFSwitch+DPDK+V1.0.5.3/dpdk-2.2.0/x86_64-native-linuxapp-gcc/lib/libdpdk.so
rte_eal_get_configuration@DPDK_2.0                /home/xyh/test/POFSwitch+DPDK+V1.0.5.3/dpdk-2.2.0/x86_64-native-linuxapp-gcc/lib/libdpdk.so
rte_eal_has_hugepages                             /home/xyh/test/POFSwitch+DPDK+V1.0.5.3/dpdk-2.2.0/x86_64-native-linuxapp-gcc/lib/libdpdk.so
                                                  icmpecho.o
                                                  csumonly.o
                                                  txonly.o
                                                  rxonly.o
                                                  flowgen.o
                                                  macswap.o
                                                  macfwd-retry.o
                                                  macfwd.o
                                                  iofwd.o
                                                  testpmd.o
rte_eal_has_hugepages@@DPDK_2.0                   /home/xyh/test/POFSwitch+DPDK+V1.0.5.3/dpdk-2.2.0/x86_64-native-linuxapp-gcc/lib/libdpdk.so
rte_eal_has_hugepages@DPDK_2.0                    /home/xyh/test/POFSwitch+DPDK+V1.0.5.3/dpdk-2.2.0/x86_64-native-linuxapp-gcc/lib/libdpdk.so
rte_eal_init                                      /home/xyh/test/POFSwitch+DPDK+V1.0.5.3/dpdk-2.2.0/x86_64-native-linuxapp-gcc/lib/libdpdk.so
                                                  testpmd.o
rte_eal_init@@DPDK_2.0                            /home/xyh/test/POFSwitch+DPDK+V1.0.5.3/dpdk-2.2.0/x86_64-native-linuxapp-gcc/lib/libdpdk.so
rte_eal_init@DPDK_2.0                             /home/xyh/test/POFSwitch+DPDK+V1.0.5.3/dpdk-2.2.0/x86_64-native-linuxapp-gcc/lib/libdpdk.so
rte_eal_mp_wait_lcore                             /home/xyh/test/POFSwitch+DPDK+V1.0.5.3/dpdk-2.2.0/x86_64-native-linuxapp-gcc/lib/libdpdk.so
                                                  testpmd.o
rte_eal_mp_wait_lcore@@DPDK_2.0                   /home/xyh/test/POFSwitch+DPDK+V1.0.5.3/dpdk-2.2.0/x86_64-native-linuxapp-gcc/lib/libdpdk.so
rte_eal_mp_wait_lcore@DPDK_2.0                    /home/xyh/test/POFSwitch+DPDK+V1.0.5.3/dpdk-2.2.0/x86_64-native-linuxapp-gcc/lib/libdpdk.so
rte_eal_remote_launch                             /home/xyh/test/POFSwitch+DPDK+V1.0.5.3/dpdk-2.2.0/x86_64-native-linuxapp-gcc/lib/libdpdk.so
                                                  testpmd.o
rte_eal_remote_launch@@DPDK_2.0                   /home/xyh/test/POFSwitch+DPDK+V1.0.5.3/dpdk-2.2.0/x86_64-native-linuxapp-gcc/lib/libdpdk.so
rte_eal_remote_launch@DPDK_2.0                    /home/xyh/test/POFSwitch+DPDK+V1.0.5.3/dpdk-2.2.0/x86_64-native-linuxapp-gcc/lib/libdpdk.so
rte_eth_allmulticast_disable                      /home/xyh/test/POFSwitch+DPDK+V1.0.5.3/dpdk-2.2.0/x86_64-native-linuxapp-gcc/lib/libdpdk.so
                                                  cmdline.o
rte_eth_allmulticast_disable@@DPDK_2.2            /home/xyh/test/POFSwitch+DPDK+V1.0.5.3/dpdk-2.2.0/x86_64-native-linuxapp-gcc/lib/libdpdk.so
rte_eth_allmulticast_disable@DPDK_2.2             /home/xyh/test/POFSwitch+DPDK+V1.0.5.3/dpdk-2.2.0/x86_64-native-linuxapp-gcc/lib/libdpdk.so
rte_eth_allmulticast_enable                       /home/xyh/test/POFSwitch+DPDK+V1.0.5.3/dpdk-2.2.0/x86_64-native-linuxapp-gcc/lib/libdpdk.so
                                                  cmdline.o
rte_eth_allmulticast_enable@@DPDK_2.2             /home/xyh/test/POFSwitch+DPDK+V1.0.5.3/dpdk-2.2.0/x86_64-native-linuxapp-gcc/lib/libdpdk.so
rte_eth_allmulticast_enable@DPDK_2.2              /home/xyh/test/POFSwitch+DPDK+V1.0.5.3/dpdk-2.2.0/x86_64-native-linuxapp-gcc/lib/libdpdk.so
rte_eth_allmulticast_get                          /home/xyh/test/POFSwitch+DPDK+V1.0.5.3/dpdk-2.2.0/x86_64-native-linuxapp-gcc/lib/libdpdk.so
                                                  config.o
rte_eth_allmulticast_get@@DPDK_2.2                /home/xyh/test/POFSwitch+DPDK+V1.0.5.3/dpdk-2.2.0/x86_64-native-linuxapp-gcc/lib/libdpdk.so
rte_eth_allmulticast_get@DPDK_2.2                 /home/xyh/test/POFSwitch+DPDK+V1.0.5.3/dpdk-2.2.0/x86_64-native-linuxapp-gcc/lib/libdpdk.so
rte_eth_bond_active_slaves_get                    /home/xyh/test/POFSwitch+DPDK+V1.0.5.3/dpdk-2.2.0/x86_64-native-linuxapp-gcc/lib/libdpdk.so
                                                  cmdline.o
rte_eth_bond_active_slaves_get@@DPDK_2.0          /home/xyh/test/POFSwitch+DPDK+V1.0.5.3/dpdk-2.2.0/x86_64-native-linuxapp-gcc/lib/libdpdk.so
rte_eth_bond_active_slaves_get@DPDK_2.0           /home/xyh/test/POFSwitch+DPDK+V1.0.5.3/dpdk-2.2.0/x86_64-native-linuxapp-gcc/lib/libdpdk.so
rte_eth_bond_create                               /home/xyh/test/POFSwitch+DPDK+V1.0.5.3/dpdk-2.2.0/x86_64-native-linuxapp-gcc/lib/libdpdk.so
                                                  cmdline.o
rte_eth_bond_create@@DPDK_2.0                     /home/xyh/test/POFSwitch+DPDK+V1.0.5.3/dpdk-2.2.0/x86_64-native-linuxapp-gcc/lib/libdpdk.so
rte_eth_bond_create@DPDK_2.0                      /home/xyh/test/POFSwitch+DPDK+V1.0.5.3/dpdk-2.2.0/x86_64-native-linuxapp-gcc/lib/libdpdk.so
rte_eth_bond_link_monitoring_set                  /home/xyh/test/POFSwitch+DPDK+V1.0.5.3/dpdk-2.2.0/x86_64-native-linuxapp-gcc/lib/libdpdk.so
                                                  cmdline.o
rte_eth_bond_link_monitoring_set@@DPDK_2.0        /home/xyh/test/POFSwitch+DPDK+V1.0.5.3/dpdk-2.2.0/x86_64-native-linuxapp-gcc/lib/libdpdk.so
rte_eth_bond_link_monitoring_set@DPDK_2.0         /home/xyh/test/POFSwitch+DPDK+V1.0.5.3/dpdk-2.2.0/x86_64-native-linuxapp-gcc/lib/libdpdk.so
rte_eth_bond_mac_address_set                      /home/xyh/test/POFSwitch+DPDK+V1.0.5.3/dpdk-2.2.0/x86_64-native-linuxapp-gcc/lib/libdpdk.so
                                                  cmdline.o
rte_eth_bond_mac_address_set@@DPDK_2.0            /home/xyh/test/POFSwitch+DPDK+V1.0.5.3/dpdk-2.2.0/x86_64-native-linuxapp-gcc/lib/libdpdk.so
rte_eth_bond_mac_address_set@DPDK_2.0             /home/xyh/test/POFSwitch+DPDK+V1.0.5.3/dpdk-2.2.0/x86_64-native-linuxapp-gcc/lib/libdpdk.so
rte_eth_bond_mode_get                             /home/xyh/test/POFSwitch+DPDK+V1.0.5.3/dpdk-2.2.0/x86_64-native-linuxapp-gcc/lib/libdpdk.so
                                                  cmdline.o
rte_eth_bond_mode_get@@DPDK_2.0                   /home/xyh/test/POFSwitch+DPDK+V1.0.5.3/dpdk-2.2.0/x86_64-native-linuxapp-gcc/lib/libdpdk.so
rte_eth_bond_mode_get@DPDK_2.0                    /home/xyh/test/POFSwitch+DPDK+V1.0.5.3/dpdk-2.2.0/x86_64-native-linuxapp-gcc/lib/libdpdk.so
rte_eth_bond_mode_set                             /home/xyh/test/POFSwitch+DPDK+V1.0.5.3/dpdk-2.2.0/x86_64-native-linuxapp-gcc/lib/libdpdk.so
                                                  cmdline.o
rte_eth_bond_mode_set@@DPDK_2.0                   /home/xyh/test/POFSwitch+DPDK+V1.0.5.3/dpdk-2.2.0/x86_64-native-linuxapp-gcc/lib/libdpdk.so
rte_eth_bond_mode_set@DPDK_2.0                    /home/xyh/test/POFSwitch+DPDK+V1.0.5.3/dpdk-2.2.0/x86_64-native-linuxapp-gcc/lib/libdpdk.so
rte_eth_bond_primary_get                          /home/xyh/test/POFSwitch+DPDK+V1.0.5.3/dpdk-2.2.0/x86_64-native-linuxapp-gcc/lib/libdpdk.so
                                                  cmdline.o
rte_eth_bond_primary_get@@DPDK_2.0                /home/xyh/test/POFSwitch+DPDK+V1.0.5.3/dpdk-2.2.0/x86_64-native-linuxapp-gcc/lib/libdpdk.so
rte_eth_bond_primary_get@DPDK_2.0                 /home/xyh/test/POFSwitch+DPDK+V1.0.5.3/dpdk-2.2.0/x86_64-native-linuxapp-gcc/lib/libdpdk.so
rte_eth_bond_primary_set                          /home/xyh/test/POFSwitch+DPDK+V1.0.5.3/dpdk-2.2.0/x86_64-native-linuxapp-gcc/lib/libdpdk.so
                                                  cmdline.o
rte_eth_bond_primary_set@@DPDK_2.0                /home/xyh/test/POFSwitch+DPDK+V1.0.5.3/dpdk-2.2.0/x86_64-native-linuxapp-gcc/lib/libdpdk.so
rte_eth_bond_primary_set@DPDK_2.0                 /home/xyh/test/POFSwitch+DPDK+V1.0.5.3/dpdk-2.2.0/x86_64-native-linuxapp-gcc/lib/libdpdk.so
rte_eth_bond_slave_add                            /home/xyh/test/POFSwitch+DPDK+V1.0.5.3/dpdk-2.2.0/x86_64-native-linuxapp-gcc/lib/libdpdk.so
                                                  cmdline.o
rte_eth_bond_slave_add@@DPDK_2.0                  /home/xyh/test/POFSwitch+DPDK+V1.0.5.3/dpdk-2.2.0/x86_64-native-linuxapp-gcc/lib/libdpdk.so
rte_eth_bond_slave_add@DPDK_2.0                   /home/xyh/test/POFSwitch+DPDK+V1.0.5.3/dpdk-2.2.0/x86_64-native-linuxapp-gcc/lib/libdpdk.so
rte_eth_bond_slave_remove                         /home/xyh/test/POFSwitch+DPDK+V1.0.5.3/dpdk-2.2.0/x86_64-native-linuxapp-gcc/lib/libdpdk.so
                                                  cmdline.o
rte_eth_bond_slave_remove@@DPDK_2.0               /home/xyh/test/POFSwitch+DPDK+V1.0.5.3/dpdk-2.2.0/x86_64-native-linuxapp-gcc/lib/libdpdk.so
rte_eth_bond_slave_remove@DPDK_2.0                /home/xyh/test/POFSwitch+DPDK+V1.0.5.3/dpdk-2.2.0/x86_64-native-linuxapp-gcc/lib/libdpdk.so
rte_eth_bond_slaves_get                           /home/xyh/test/POFSwitch+DPDK+V1.0.5.3/dpdk-2.2.0/x86_64-native-linuxapp-gcc/lib/libdpdk.so
                                                  cmdline.o
rte_eth_bond_slaves_get@@DPDK_2.0                 /home/xyh/test/POFSwitch+DPDK+V1.0.5.3/dpdk-2.2.0/x86_64-native-linuxapp-gcc/lib/libdpdk.so
rte_eth_bond_slaves_get@DPDK_2.0                  /home/xyh/test/POFSwitch+DPDK+V1.0.5.3/dpdk-2.2.0/x86_64-native-linuxapp-gcc/lib/libdpdk.so
rte_eth_bond_xmit_policy_get                      /home/xyh/test/POFSwitch+DPDK+V1.0.5.3/dpdk-2.2.0/x86_64-native-linuxapp-gcc/lib/libdpdk.so
                                                  cmdline.o
rte_eth_bond_xmit_policy_get@@DPDK_2.0            /home/xyh/test/POFSwitch+DPDK+V1.0.5.3/dpdk-2.2.0/x86_64-native-linuxapp-gcc/lib/libdpdk.so
rte_eth_bond_xmit_policy_get@DPDK_2.0             /home/xyh/test/POFSwitch+DPDK+V1.0.5.3/dpdk-2.2.0/x86_64-native-linuxapp-gcc/lib/libdpdk.so
rte_eth_bond_xmit_policy_set                      /home/xyh/test/POFSwitch+DPDK+V1.0.5.3/dpdk-2.2.0/x86_64-native-linuxapp-gcc/lib/libdpdk.so
                                                  cmdline.o
rte_eth_bond_xmit_policy_set@@DPDK_2.0            /home/xyh/test/POFSwitch+DPDK+V1.0.5.3/dpdk-2.2.0/x86_64-native-linuxapp-gcc/lib/libdpdk.so
rte_eth_bond_xmit_policy_set@DPDK_2.0             /home/xyh/test/POFSwitch+DPDK+V1.0.5.3/dpdk-2.2.0/x86_64-native-linuxapp-gcc/lib/libdpdk.so
rte_eth_dev_attach                                /home/xyh/test/POFSwitch+DPDK+V1.0.5.3/dpdk-2.2.0/x86_64-native-linuxapp-gcc/lib/libdpdk.so
                                                  testpmd.o
rte_eth_dev_attach@@DPDK_2.2                      /home/xyh/test/POFSwitch+DPDK+V1.0.5.3/dpdk-2.2.0/x86_64-native-linuxapp-gcc/lib/libdpdk.so
rte_eth_dev_attach@DPDK_2.2                       /home/xyh/test/POFSwitch+DPDK+V1.0.5.3/dpdk-2.2.0/x86_64-native-linuxapp-gcc/lib/libdpdk.so
rte_eth_dev_close                                 /home/xyh/test/POFSwitch+DPDK+V1.0.5.3/dpdk-2.2.0/x86_64-native-linuxapp-gcc/lib/libdpdk.so
                                                  testpmd.o
rte_eth_dev_close@@DPDK_2.2                       /home/xyh/test/POFSwitch+DPDK+V1.0.5.3/dpdk-2.2.0/x86_64-native-linuxapp-gcc/lib/libdpdk.so
rte_eth_dev_close@DPDK_2.2                        /home/xyh/test/POFSwitch+DPDK+V1.0.5.3/dpdk-2.2.0/x86_64-native-linuxapp-gcc/lib/libdpdk.so
rte_eth_dev_configure                             /home/xyh/test/POFSwitch+DPDK+V1.0.5.3/dpdk-2.2.0/x86_64-native-linuxapp-gcc/lib/libdpdk.so
                                                  testpmd.o
rte_eth_dev_configure@@DPDK_2.2                   /home/xyh/test/POFSwitch+DPDK+V1.0.5.3/dpdk-2.2.0/x86_64-native-linuxapp-gcc/lib/libdpdk.so
rte_eth_dev_configure@DPDK_2.2                    /home/xyh/test/POFSwitch+DPDK+V1.0.5.3/dpdk-2.2.0/x86_64-native-linuxapp-gcc/lib/libdpdk.so
rte_eth_dev_count                                 /home/xyh/test/POFSwitch+DPDK+V1.0.5.3/dpdk-2.2.0/x86_64-native-linuxapp-gcc/lib/libdpdk.so
                                                  cmdline.o
                                                  testpmd.o
rte_eth_dev_count@@DPDK_2.2                       /home/xyh/test/POFSwitch+DPDK+V1.0.5.3/dpdk-2.2.0/x86_64-native-linuxapp-gcc/lib/libdpdk.so
rte_eth_dev_count@DPDK_2.2                        /home/xyh/test/POFSwitch+DPDK+V1.0.5.3/dpdk-2.2.0/x86_64-native-linuxapp-gcc/lib/libdpdk.so
rte_eth_dev_detach                                /home/xyh/test/POFSwitch+DPDK+V1.0.5.3/dpdk-2.2.0/x86_64-native-linuxapp-gcc/lib/libdpdk.so
                                                  testpmd.o
rte_eth_dev_detach@@DPDK_2.2                      /home/xyh/test/POFSwitch+DPDK+V1.0.5.3/dpdk-2.2.0/x86_64-native-linuxapp-gcc/lib/libdpdk.so
rte_eth_dev_detach@DPDK_2.2                       /home/xyh/test/POFSwitch+DPDK+V1.0.5.3/dpdk-2.2.0/x86_64-native-linuxapp-gcc/lib/libdpdk.so
rte_eth_dev_filter_ctrl                           /home/xyh/test/POFSwitch+DPDK+V1.0.5.3/dpdk-2.2.0/x86_64-native-linuxapp-gcc/lib/libdpdk.so
                                                  config.o
                                                  cmdline.o
rte_eth_dev_filter_ctrl@@DPDK_2.2                 /home/xyh/test/POFSwitch+DPDK+V1.0.5.3/dpdk-2.2.0/x86_64-native-linuxapp-gcc/lib/libdpdk.so
rte_eth_dev_filter_ctrl@DPDK_2.2                  /home/xyh/test/POFSwitch+DPDK+V1.0.5.3/dpdk-2.2.0/x86_64-native-linuxapp-gcc/lib/libdpdk.so
rte_eth_dev_filter_supported                      /home/xyh/test/POFSwitch+DPDK+V1.0.5.3/dpdk-2.2.0/x86_64-native-linuxapp-gcc/lib/libdpdk.so
                                                  config.o
                                                  cmdline.o
rte_eth_dev_filter_supported@@DPDK_2.2            /home/xyh/test/POFSwitch+DPDK+V1.0.5.3/dpdk-2.2.0/x86_64-native-linuxapp-gcc/lib/libdpdk.so
rte_eth_dev_filter_supported@DPDK_2.2             /home/xyh/test/POFSwitch+DPDK+V1.0.5.3/dpdk-2.2.0/x86_64-native-linuxapp-gcc/lib/libdpdk.so
rte_eth_dev_flow_ctrl_get                         /home/xyh/test/POFSwitch+DPDK+V1.0.5.3/dpdk-2.2.0/x86_64-native-linuxapp-gcc/lib/libdpdk.so
                                                  cmdline.o
rte_eth_dev_flow_ctrl_get@@DPDK_2.2               /home/xyh/test/POFSwitch+DPDK+V1.0.5.3/dpdk-2.2.0/x86_64-native-linuxapp-gcc/lib/libdpdk.so
rte_eth_dev_flow_ctrl_get@DPDK_2.2                /home/xyh/test/POFSwitch+DPDK+V1.0.5.3/dpdk-2.2.0/x86_64-native-linuxapp-gcc/lib/libdpdk.so
rte_eth_dev_flow_ctrl_set                         /home/xyh/test/POFSwitch+DPDK+V1.0.5.3/dpdk-2.2.0/x86_64-native-linuxapp-gcc/lib/libdpdk.so
                                                  cmdline.o
rte_eth_dev_flow_ctrl_set@@DPDK_2.2               /home/xyh/test/POFSwitch+DPDK+V1.0.5.3/dpdk-2.2.0/x86_64-native-linuxapp-gcc/lib/libdpdk.so
rte_eth_dev_flow_ctrl_set@DPDK_2.2                /home/xyh/test/POFSwitch+DPDK+V1.0.5.3/dpdk-2.2.0/x86_64-native-linuxapp-gcc/lib/libdpdk.so
rte_eth_dev_get_dcb_info                          /home/xyh/test/POFSwitch+DPDK+V1.0.5.3/dpdk-2.2.0/x86_64-native-linuxapp-gcc/lib/libdpdk.so
                                                  config.o
rte_eth_dev_get_dcb_info@@DPDK_2.2                /home/xyh/test/POFSwitch+DPDK+V1.0.5.3/dpdk-2.2.0/x86_64-native-linuxapp-gcc/lib/libdpdk.so
rte_eth_dev_get_dcb_info@DPDK_2.2                 /home/xyh/test/POFSwitch+DPDK+V1.0.5.3/dpdk-2.2.0/x86_64-native-linuxapp-gcc/lib/libdpdk.so
rte_eth_dev_get_vlan_offload                      /home/xyh/test/POFSwitch+DPDK+V1.0.5.3/dpdk-2.2.0/x86_64-native-linuxapp-gcc/lib/libdpdk.so
                                                  config.o
                                                  cmdline.o
rte_eth_dev_get_vlan_offload@@DPDK_2.2            /home/xyh/test/POFSwitch+DPDK+V1.0.5.3/dpdk-2.2.0/x86_64-native-linuxapp-gcc/lib/libdpdk.so
rte_eth_dev_get_vlan_offload@DPDK_2.2             /home/xyh/test/POFSwitch+DPDK+V1.0.5.3/dpdk-2.2.0/x86_64-native-linuxapp-gcc/lib/libdpdk.so
rte_eth_dev_info_get                              /home/xyh/test/POFSwitch+DPDK+V1.0.5.3/dpdk-2.2.0/x86_64-native-linuxapp-gcc/lib/libdpdk.so
                                                  config.o
                                                  cmdline.o
                                                  testpmd.o
rte_eth_dev_info_get@@DPDK_2.2                    /home/xyh/test/POFSwitch+DPDK+V1.0.5.3/dpdk-2.2.0/x86_64-native-linuxapp-gcc/lib/libdpdk.so
rte_eth_dev_info_get@DPDK_2.2                     /home/xyh/test/POFSwitch+DPDK+V1.0.5.3/dpdk-2.2.0/x86_64-native-linuxapp-gcc/lib/libdpdk.so
rte_eth_dev_mac_addr_add                          /home/xyh/test/POFSwitch+DPDK+V1.0.5.3/dpdk-2.2.0/x86_64-native-linuxapp-gcc/lib/libdpdk.so
                                                  cmdline.o
rte_eth_dev_mac_addr_add@@DPDK_2.2                /home/xyh/test/POFSwitch+DPDK+V1.0.5.3/dpdk-2.2.0/x86_64-native-linuxapp-gcc/lib/libdpdk.so
rte_eth_dev_mac_addr_add@DPDK_2.2                 /home/xyh/test/POFSwitch+DPDK+V1.0.5.3/dpdk-2.2.0/x86_64-native-linuxapp-gcc/lib/libdpdk.so
rte_eth_dev_mac_addr_remove                       /home/xyh/test/POFSwitch+DPDK+V1.0.5.3/dpdk-2.2.0/x86_64-native-linuxapp-gcc/lib/libdpdk.so
                                                  cmdline.o
rte_eth_dev_mac_addr_remove@@DPDK_2.2             /home/xyh/test/POFSwitch+DPDK+V1.0.5.3/dpdk-2.2.0/x86_64-native-linuxapp-gcc/lib/libdpdk.so
rte_eth_dev_mac_addr_remove@DPDK_2.2              /home/xyh/test/POFSwitch+DPDK+V1.0.5.3/dpdk-2.2.0/x86_64-native-linuxapp-gcc/lib/libdpdk.so
rte_eth_dev_priority_flow_ctrl_set                /home/xyh/test/POFSwitch+DPDK+V1.0.5.3/dpdk-2.2.0/x86_64-native-linuxapp-gcc/lib/libdpdk.so
                                                  cmdline.o
rte_eth_dev_priority_flow_ctrl_set@@DPDK_2.2      /home/xyh/test/POFSwitch+DPDK+V1.0.5.3/dpdk-2.2.0/x86_64-native-linuxapp-gcc/lib/libdpdk.so
rte_eth_dev_priority_flow_ctrl_set@DPDK_2.2       /home/xyh/test/POFSwitch+DPDK+V1.0.5.3/dpdk-2.2.0/x86_64-native-linuxapp-gcc/lib/libdpdk.so
rte_eth_dev_rss_hash_conf_get                     /home/xyh/test/POFSwitch+DPDK+V1.0.5.3/dpdk-2.2.0/x86_64-native-linuxapp-gcc/lib/libdpdk.so
                                                  config.o
rte_eth_dev_rss_hash_conf_get@@DPDK_2.2           /home/xyh/test/POFSwitch+DPDK+V1.0.5.3/dpdk-2.2.0/x86_64-native-linuxapp-gcc/lib/libdpdk.so
rte_eth_dev_rss_hash_conf_get@DPDK_2.2            /home/xyh/test/POFSwitch+DPDK+V1.0.5.3/dpdk-2.2.0/x86_64-native-linuxapp-gcc/lib/libdpdk.so
rte_eth_dev_rss_hash_update                       /home/xyh/test/POFSwitch+DPDK+V1.0.5.3/dpdk-2.2.0/x86_64-native-linuxapp-gcc/lib/libdpdk.so
                                                  config.o
                                                  cmdline.o
rte_eth_dev_rss_hash_update@@DPDK_2.2             /home/xyh/test/POFSwitch+DPDK+V1.0.5.3/dpdk-2.2.0/x86_64-native-linuxapp-gcc/lib/libdpdk.so
rte_eth_dev_rss_hash_update@DPDK_2.2              /home/xyh/test/POFSwitch+DPDK+V1.0.5.3/dpdk-2.2.0/x86_64-native-linuxapp-gcc/lib/libdpdk.so
rte_eth_dev_rss_reta_query                        /home/xyh/test/POFSwitch+DPDK+V1.0.5.3/dpdk-2.2.0/x86_64-native-linuxapp-gcc/lib/libdpdk.so
                                                  config.o
rte_eth_dev_rss_reta_query@@DPDK_2.2              /home/xyh/test/POFSwitch+DPDK+V1.0.5.3/dpdk-2.2.0/x86_64-native-linuxapp-gcc/lib/libdpdk.so
rte_eth_dev_rss_reta_query@DPDK_2.2               /home/xyh/test/POFSwitch+DPDK+V1.0.5.3/dpdk-2.2.0/x86_64-native-linuxapp-gcc/lib/libdpdk.so
rte_eth_dev_rss_reta_update                       /home/xyh/test/POFSwitch+DPDK+V1.0.5.3/dpdk-2.2.0/x86_64-native-linuxapp-gcc/lib/libdpdk.so
                                                  cmdline.o
rte_eth_dev_rss_reta_update@@DPDK_2.2             /home/xyh/test/POFSwitch+DPDK+V1.0.5.3/dpdk-2.2.0/x86_64-native-linuxapp-gcc/lib/libdpdk.so
rte_eth_dev_rss_reta_update@DPDK_2.2              /home/xyh/test/POFSwitch+DPDK+V1.0.5.3/dpdk-2.2.0/x86_64-native-linuxapp-gcc/lib/libdpdk.so
rte_eth_dev_rx_queue_start                        /home/xyh/test/POFSwitch+DPDK+V1.0.5.3/dpdk-2.2.0/x86_64-native-linuxapp-gcc/lib/libdpdk.so
                                                  cmdline.o
rte_eth_dev_rx_queue_start@@DPDK_2.2              /home/xyh/test/POFSwitch+DPDK+V1.0.5.3/dpdk-2.2.0/x86_64-native-linuxapp-gcc/lib/libdpdk.so
rte_eth_dev_rx_queue_start@DPDK_2.2               /home/xyh/test/POFSwitch+DPDK+V1.0.5.3/dpdk-2.2.0/x86_64-native-linuxapp-gcc/lib/libdpdk.so
rte_eth_dev_rx_queue_stop                         /home/xyh/test/POFSwitch+DPDK+V1.0.5.3/dpdk-2.2.0/x86_64-native-linuxapp-gcc/lib/libdpdk.so
                                                  cmdline.o
rte_eth_dev_rx_queue_stop@@DPDK_2.2               /home/xyh/test/POFSwitch+DPDK+V1.0.5.3/dpdk-2.2.0/x86_64-native-linuxapp-gcc/lib/libdpdk.so
rte_eth_dev_rx_queue_stop@DPDK_2.2                /home/xyh/test/POFSwitch+DPDK+V1.0.5.3/dpdk-2.2.0/x86_64-native-linuxapp-gcc/lib/libdpdk.so
rte_eth_dev_set_link_down                         /home/xyh/test/POFSwitch+DPDK+V1.0.5.3/dpdk-2.2.0/x86_64-native-linuxapp-gcc/lib/libdpdk.so
                                                  testpmd.o
rte_eth_dev_set_link_down@@DPDK_2.2               /home/xyh/test/POFSwitch+DPDK+V1.0.5.3/dpdk-2.2.0/x86_64-native-linuxapp-gcc/lib/libdpdk.so
rte_eth_dev_set_link_down@DPDK_2.2                /home/xyh/test/POFSwitch+DPDK+V1.0.5.3/dpdk-2.2.0/x86_64-native-linuxapp-gcc/lib/libdpdk.so
rte_eth_dev_set_link_up                           /home/xyh/test/POFSwitch+DPDK+V1.0.5.3/dpdk-2.2.0/x86_64-native-linuxapp-gcc/lib/libdpdk.so
                                                  testpmd.o
rte_eth_dev_set_link_up@@DPDK_2.2                 /home/xyh/test/POFSwitch+DPDK+V1.0.5.3/dpdk-2.2.0/x86_64-native-linuxapp-gcc/lib/libdpdk.so
rte_eth_dev_set_link_up@DPDK_2.2                  /home/xyh/test/POFSwitch+DPDK+V1.0.5.3/dpdk-2.2.0/x86_64-native-linuxapp-gcc/lib/libdpdk.so
rte_eth_dev_set_mc_addr_list                      /home/xyh/test/POFSwitch+DPDK+V1.0.5.3/dpdk-2.2.0/x86_64-native-linuxapp-gcc/lib/libdpdk.so
                                                  config.o
rte_eth_dev_set_mc_addr_list@@DPDK_2.2            /home/xyh/test/POFSwitch+DPDK+V1.0.5.3/dpdk-2.2.0/x86_64-native-linuxapp-gcc/lib/libdpdk.so
rte_eth_dev_set_mc_addr_list@DPDK_2.2             /home/xyh/test/POFSwitch+DPDK+V1.0.5.3/dpdk-2.2.0/x86_64-native-linuxapp-gcc/lib/libdpdk.so
rte_eth_dev_set_mtu                               /home/xyh/test/POFSwitch+DPDK+V1.0.5.3/dpdk-2.2.0/x86_64-native-linuxapp-gcc/lib/libdpdk.so
                                                  config.o
rte_eth_dev_set_mtu@@DPDK_2.2                     /home/xyh/test/POFSwitch+DPDK+V1.0.5.3/dpdk-2.2.0/x86_64-native-linuxapp-gcc/lib/libdpdk.so
rte_eth_dev_set_mtu@DPDK_2.2                      /home/xyh/test/POFSwitch+DPDK+V1.0.5.3/dpdk-2.2.0/x86_64-native-linuxapp-gcc/lib/libdpdk.so
rte_eth_dev_set_rx_queue_stats_mapping            /home/xyh/test/POFSwitch+DPDK+V1.0.5.3/dpdk-2.2.0/x86_64-native-linuxapp-gcc/lib/libdpdk.so
                                                  testpmd.o
rte_eth_dev_set_rx_queue_stats_mapping@@DPDK_2.2  /home/xyh/test/POFSwitch+DPDK+V1.0.5.3/dpdk-2.2.0/x86_64-native-linuxapp-gcc/lib/libdpdk.so
rte_eth_dev_set_rx_queue_stats_mapping@DPDK_2.2   /home/xyh/test/POFSwitch+DPDK+V1.0.5.3/dpdk-2.2.0/x86_64-native-linuxapp-gcc/lib/libdpdk.so
rte_eth_dev_set_tx_queue_stats_mapping            /home/xyh/test/POFSwitch+DPDK+V1.0.5.3/dpdk-2.2.0/x86_64-native-linuxapp-gcc/lib/libdpdk.so
                                                  testpmd.o
rte_eth_dev_set_tx_queue_stats_mapping@@DPDK_2.2  /home/xyh/test/POFSwitch+DPDK+V1.0.5.3/dpdk-2.2.0/x86_64-native-linuxapp-gcc/lib/libdpdk.so
rte_eth_dev_set_tx_queue_stats_mapping@DPDK_2.2   /home/xyh/test/POFSwitch+DPDK+V1.0.5.3/dpdk-2.2.0/x86_64-native-linuxapp-gcc/lib/libdpdk.so
rte_eth_dev_set_vf_rx                             /home/xyh/test/POFSwitch+DPDK+V1.0.5.3/dpdk-2.2.0/x86_64-native-linuxapp-gcc/lib/libdpdk.so
                                                  config.o
rte_eth_dev_set_vf_rx@@DPDK_2.2                   /home/xyh/test/POFSwitch+DPDK+V1.0.5.3/dpdk-2.2.0/x86_64-native-linuxapp-gcc/lib/libdpdk.so
rte_eth_dev_set_vf_rx@DPDK_2.2                    /home/xyh/test/POFSwitch+DPDK+V1.0.5.3/dpdk-2.2.0/x86_64-native-linuxapp-gcc/lib/libdpdk.so
rte_eth_dev_set_vf_rxmode                         /home/xyh/test/POFSwitch+DPDK+V1.0.5.3/dpdk-2.2.0/x86_64-native-linuxapp-gcc/lib/libdpdk.so
                                                  cmdline.o
rte_eth_dev_set_vf_rxmode@@DPDK_2.2               /home/xyh/test/POFSwitch+DPDK+V1.0.5.3/dpdk-2.2.0/x86_64-native-linuxapp-gcc/lib/libdpdk.so
rte_eth_dev_set_vf_rxmode@DPDK_2.2                /home/xyh/test/POFSwitch+DPDK+V1.0.5.3/dpdk-2.2.0/x86_64-native-linuxapp-gcc/lib/libdpdk.so
rte_eth_dev_set_vf_tx                             /home/xyh/test/POFSwitch+DPDK+V1.0.5.3/dpdk-2.2.0/x86_64-native-linuxapp-gcc/lib/libdpdk.so
                                                  config.o
rte_eth_dev_set_vf_tx@@DPDK_2.2                   /home/xyh/test/POFSwitch+DPDK+V1.0.5.3/dpdk-2.2.0/x86_64-native-linuxapp-gcc/lib/libdpdk.so
rte_eth_dev_set_vf_tx@DPDK_2.2                    /home/xyh/test/POFSwitch+DPDK+V1.0.5.3/dpdk-2.2.0/x86_64-native-linuxapp-gcc/lib/libdpdk.so
rte_eth_dev_set_vf_vlan_filter                    /home/xyh/test/POFSwitch+DPDK+V1.0.5.3/dpdk-2.2.0/x86_64-native-linuxapp-gcc/lib/libdpdk.so
                                                  config.o
rte_eth_dev_set_vf_vlan_filter@@DPDK_2.2          /home/xyh/test/POFSwitch+DPDK+V1.0.5.3/dpdk-2.2.0/x86_64-native-linuxapp-gcc/lib/libdpdk.so
rte_eth_dev_set_vf_vlan_filter@DPDK_2.2           /home/xyh/test/POFSwitch+DPDK+V1.0.5.3/dpdk-2.2.0/x86_64-native-linuxapp-gcc/lib/libdpdk.so
rte_eth_dev_set_vlan_ether_type                   /home/xyh/test/POFSwitch+DPDK+V1.0.5.3/dpdk-2.2.0/x86_64-native-linuxapp-gcc/lib/libdpdk.so
                                                  config.o
rte_eth_dev_set_vlan_ether_type@@DPDK_2.2         /home/xyh/test/POFSwitch+DPDK+V1.0.5.3/dpdk-2.2.0/x86_64-native-linuxapp-gcc/lib/libdpdk.so
rte_eth_dev_set_vlan_ether_type@DPDK_2.2          /home/xyh/test/POFSwitch+DPDK+V1.0.5.3/dpdk-2.2.0/x86_64-native-linuxapp-gcc/lib/libdpdk.so
rte_eth_dev_set_vlan_offload                      /home/xyh/test/POFSwitch+DPDK+V1.0.5.3/dpdk-2.2.0/x86_64-native-linuxapp-gcc/lib/libdpdk.so
                                                  config.o
rte_eth_dev_set_vlan_offload@@DPDK_2.2            /home/xyh/test/POFSwitch+DPDK+V1.0.5.3/dpdk-2.2.0/x86_64-native-linuxapp-gcc/lib/libdpdk.so
rte_eth_dev_set_vlan_offload@DPDK_2.2             /home/xyh/test/POFSwitch+DPDK+V1.0.5.3/dpdk-2.2.0/x86_64-native-linuxapp-gcc/lib/libdpdk.so
rte_eth_dev_set_vlan_pvid                         /home/xyh/test/POFSwitch+DPDK+V1.0.5.3/dpdk-2.2.0/x86_64-native-linuxapp-gcc/lib/libdpdk.so
                                                  config.o
rte_eth_dev_set_vlan_pvid@@DPDK_2.2               /home/xyh/test/POFSwitch+DPDK+V1.0.5.3/dpdk-2.2.0/x86_64-native-linuxapp-gcc/lib/libdpdk.so
rte_eth_dev_set_vlan_pvid@DPDK_2.2                /home/xyh/test/POFSwitch+DPDK+V1.0.5.3/dpdk-2.2.0/x86_64-native-linuxapp-gcc/lib/libdpdk.so
rte_eth_dev_set_vlan_strip_on_queue               /home/xyh/test/POFSwitch+DPDK+V1.0.5.3/dpdk-2.2.0/x86_64-native-linuxapp-gcc/lib/libdpdk.so
                                                  config.o
rte_eth_dev_set_vlan_strip_on_queue@@DPDK_2.2     /home/xyh/test/POFSwitch+DPDK+V1.0.5.3/dpdk-2.2.0/x86_64-native-linuxapp-gcc/lib/libdpdk.so
rte_eth_dev_set_vlan_strip_on_queue@DPDK_2.2      /home/xyh/test/POFSwitch+DPDK+V1.0.5.3/dpdk-2.2.0/x86_64-native-linuxapp-gcc/lib/libdpdk.so
rte_eth_dev_socket_id                             /home/xyh/test/POFSwitch+DPDK+V1.0.5.3/dpdk-2.2.0/x86_64-native-linuxapp-gcc/lib/libdpdk.so
                                                  testpmd.o
rte_eth_dev_socket_id@@DPDK_2.2                   /home/xyh/test/POFSwitch+DPDK+V1.0.5.3/dpdk-2.2.0/x86_64-native-linuxapp-gcc/lib/libdpdk.so
rte_eth_dev_socket_id@DPDK_2.2                    /home/xyh/test/POFSwitch+DPDK+V1.0.5.3/dpdk-2.2.0/x86_64-native-linuxapp-gcc/lib/libdpdk.so
rte_eth_dev_start                                 /home/xyh/test/POFSwitch+DPDK+V1.0.5.3/dpdk-2.2.0/x86_64-native-linuxapp-gcc/lib/libdpdk.so
                                                  testpmd.o
rte_eth_dev_start@@DPDK_2.2                       /home/xyh/test/POFSwitch+DPDK+V1.0.5.3/dpdk-2.2.0/x86_64-native-linuxapp-gcc/lib/libdpdk.so
rte_eth_dev_start@DPDK_2.2                        /home/xyh/test/POFSwitch+DPDK+V1.0.5.3/dpdk-2.2.0/x86_64-native-linuxapp-gcc/lib/libdpdk.so
rte_eth_dev_stop                                  /home/xyh/test/POFSwitch+DPDK+V1.0.5.3/dpdk-2.2.0/x86_64-native-linuxapp-gcc/lib/libdpdk.so
                                                  testpmd.o
rte_eth_dev_stop@@DPDK_2.2                        /home/xyh/test/POFSwitch+DPDK+V1.0.5.3/dpdk-2.2.0/x86_64-native-linuxapp-gcc/lib/libdpdk.so
rte_eth_dev_stop@DPDK_2.2                         /home/xyh/test/POFSwitch+DPDK+V1.0.5.3/dpdk-2.2.0/x86_64-native-linuxapp-gcc/lib/libdpdk.so
rte_eth_dev_tx_queue_start                        /home/xyh/test/POFSwitch+DPDK+V1.0.5.3/dpdk-2.2.0/x86_64-native-linuxapp-gcc/lib/libdpdk.so
                                                  cmdline.o
rte_eth_dev_tx_queue_start@@DPDK_2.2              /home/xyh/test/POFSwitch+DPDK+V1.0.5.3/dpdk-2.2.0/x86_64-native-linuxapp-gcc/lib/libdpdk.so
rte_eth_dev_tx_queue_start@DPDK_2.2               /home/xyh/test/POFSwitch+DPDK+V1.0.5.3/dpdk-2.2.0/x86_64-native-linuxapp-gcc/lib/libdpdk.so
rte_eth_dev_tx_queue_stop                         /home/xyh/test/POFSwitch+DPDK+V1.0.5.3/dpdk-2.2.0/x86_64-native-linuxapp-gcc/lib/libdpdk.so
                                                  cmdline.o
rte_eth_dev_tx_queue_stop@@DPDK_2.2               /home/xyh/test/POFSwitch+DPDK+V1.0.5.3/dpdk-2.2.0/x86_64-native-linuxapp-gcc/lib/libdpdk.so
rte_eth_dev_tx_queue_stop@DPDK_2.2                /home/xyh/test/POFSwitch+DPDK+V1.0.5.3/dpdk-2.2.0/x86_64-native-linuxapp-gcc/lib/libdpdk.so
rte_eth_dev_uc_all_hash_table_set                 /home/xyh/test/POFSwitch+DPDK+V1.0.5.3/dpdk-2.2.0/x86_64-native-linuxapp-gcc/lib/libdpdk.so
                                                  cmdline.o
rte_eth_dev_uc_all_hash_table_set@@DPDK_2.2       /home/xyh/test/POFSwitch+DPDK+V1.0.5.3/dpdk-2.2.0/x86_64-native-linuxapp-gcc/lib/libdpdk.so
rte_eth_dev_uc_all_hash_table_set@DPDK_2.2        /home/xyh/test/POFSwitch+DPDK+V1.0.5.3/dpdk-2.2.0/x86_64-native-linuxapp-gcc/lib/libdpdk.so
rte_eth_dev_uc_hash_table_set                     /home/xyh/test/POFSwitch+DPDK+V1.0.5.3/dpdk-2.2.0/x86_64-native-linuxapp-gcc/lib/libdpdk.so
                                                  cmdline.o
rte_eth_dev_uc_hash_table_set@@DPDK_2.2           /home/xyh/test/POFSwitch+DPDK+V1.0.5.3/dpdk-2.2.0/x86_64-native-linuxapp-gcc/lib/libdpdk.so
rte_eth_dev_uc_hash_table_set@DPDK_2.2            /home/xyh/test/POFSwitch+DPDK+V1.0.5.3/dpdk-2.2.0/x86_64-native-linuxapp-gcc/lib/libdpdk.so
rte_eth_dev_udp_tunnel_add                        /home/xyh/test/POFSwitch+DPDK+V1.0.5.3/dpdk-2.2.0/x86_64-native-linuxapp-gcc/lib/libdpdk.so
                                                  cmdline.o
rte_eth_dev_udp_tunnel_add@@DPDK_2.2              /home/xyh/test/POFSwitch+DPDK+V1.0.5.3/dpdk-2.2.0/x86_64-native-linuxapp-gcc/lib/libdpdk.so
rte_eth_dev_udp_tunnel_add@DPDK_2.2               /home/xyh/test/POFSwitch+DPDK+V1.0.5.3/dpdk-2.2.0/x86_64-native-linuxapp-gcc/lib/libdpdk.so
rte_eth_dev_udp_tunnel_delete                     /home/xyh/test/POFSwitch+DPDK+V1.0.5.3/dpdk-2.2.0/x86_64-native-linuxapp-gcc/lib/libdpdk.so
                                                  cmdline.o
rte_eth_dev_udp_tunnel_delete@@DPDK_2.2           /home/xyh/test/POFSwitch+DPDK+V1.0.5.3/dpdk-2.2.0/x86_64-native-linuxapp-gcc/lib/libdpdk.so
rte_eth_dev_udp_tunnel_delete@DPDK_2.2            /home/xyh/test/POFSwitch+DPDK+V1.0.5.3/dpdk-2.2.0/x86_64-native-linuxapp-gcc/lib/libdpdk.so
rte_eth_dev_vlan_filter                           /home/xyh/test/POFSwitch+DPDK+V1.0.5.3/dpdk-2.2.0/x86_64-native-linuxapp-gcc/lib/libdpdk.so
                                                  config.o
rte_eth_dev_vlan_filter@@DPDK_2.2                 /home/xyh/test/POFSwitch+DPDK+V1.0.5.3/dpdk-2.2.0/x86_64-native-linuxapp-gcc/lib/libdpdk.so
rte_eth_dev_vlan_filter@DPDK_2.2                  /home/xyh/test/POFSwitch+DPDK+V1.0.5.3/dpdk-2.2.0/x86_64-native-linuxapp-gcc/lib/libdpdk.so
rte_eth_link_get_nowait                           /home/xyh/test/POFSwitch+DPDK+V1.0.5.3/dpdk-2.2.0/x86_64-native-linuxapp-gcc/lib/libdpdk.so
                                                  config.o
                                                  testpmd.o
rte_eth_link_get_nowait@@DPDK_2.2                 /home/xyh/test/POFSwitch+DPDK+V1.0.5.3/dpdk-2.2.0/x86_64-native-linuxapp-gcc/lib/libdpdk.so
rte_eth_link_get_nowait@DPDK_2.2                  /home/xyh/test/POFSwitch+DPDK+V1.0.5.3/dpdk-2.2.0/x86_64-native-linuxapp-gcc/lib/libdpdk.so
rte_eth_macaddr_get                               /home/xyh/test/POFSwitch+DPDK+V1.0.5.3/dpdk-2.2.0/x86_64-native-linuxapp-gcc/lib/libdpdk.so
                                                  config.o
                                                  testpmd.o
rte_eth_macaddr_get@@DPDK_2.2                     /home/xyh/test/POFSwitch+DPDK+V1.0.5.3/dpdk-2.2.0/x86_64-native-linuxapp-gcc/lib/libdpdk.so
rte_eth_macaddr_get@DPDK_2.2                      /home/xyh/test/POFSwitch+DPDK+V1.0.5.3/dpdk-2.2.0/x86_64-native-linuxapp-gcc/lib/libdpdk.so
rte_eth_mirror_rule_reset                         /home/xyh/test/POFSwitch+DPDK+V1.0.5.3/dpdk-2.2.0/x86_64-native-linuxapp-gcc/lib/libdpdk.so
                                                  cmdline.o
rte_eth_mirror_rule_reset@@DPDK_2.2               /home/xyh/test/POFSwitch+DPDK+V1.0.5.3/dpdk-2.2.0/x86_64-native-linuxapp-gcc/lib/libdpdk.so
rte_eth_mirror_rule_reset@DPDK_2.2                /home/xyh/test/POFSwitch+DPDK+V1.0.5.3/dpdk-2.2.0/x86_64-native-linuxapp-gcc/lib/libdpdk.so
rte_eth_mirror_rule_set                           /home/xyh/test/POFSwitch+DPDK+V1.0.5.3/dpdk-2.2.0/x86_64-native-linuxapp-gcc/lib/libdpdk.so
                                                  cmdline.o
rte_eth_mirror_rule_set@@DPDK_2.2                 /home/xyh/test/POFSwitch+DPDK+V1.0.5.3/dpdk-2.2.0/x86_64-native-linuxapp-gcc/lib/libdpdk.so
rte_eth_mirror_rule_set@DPDK_2.2                  /home/xyh/test/POFSwitch+DPDK+V1.0.5.3/dpdk-2.2.0/x86_64-native-linuxapp-gcc/lib/libdpdk.so
rte_eth_promiscuous_disable                       /home/xyh/test/POFSwitch+DPDK+V1.0.5.3/dpdk-2.2.0/x86_64-native-linuxapp-gcc/lib/libdpdk.so
                                                  cmdline.o
rte_eth_promiscuous_disable@@DPDK_2.2             /home/xyh/test/POFSwitch+DPDK+V1.0.5.3/dpdk-2.2.0/x86_64-native-linuxapp-gcc/lib/libdpdk.so
rte_eth_promiscuous_disable@DPDK_2.2              /home/xyh/test/POFSwitch+DPDK+V1.0.5.3/dpdk-2.2.0/x86_64-native-linuxapp-gcc/lib/libdpdk.so
rte_eth_promiscuous_enable                        /home/xyh/test/POFSwitch+DPDK+V1.0.5.3/dpdk-2.2.0/x86_64-native-linuxapp-gcc/lib/libdpdk.so
                                                  cmdline.o
                                                  testpmd.o
rte_eth_promiscuous_enable@@DPDK_2.2              /home/xyh/test/POFSwitch+DPDK+V1.0.5.3/dpdk-2.2.0/x86_64-native-linuxapp-gcc/lib/libdpdk.so
rte_eth_promiscuous_enable@DPDK_2.2               /home/xyh/test/POFSwitch+DPDK+V1.0.5.3/dpdk-2.2.0/x86_64-native-linuxapp-gcc/lib/libdpdk.so
rte_eth_promiscuous_get                           /home/xyh/test/POFSwitch+DPDK+V1.0.5.3/dpdk-2.2.0/x86_64-native-linuxapp-gcc/lib/libdpdk.so
                                                  config.o
rte_eth_promiscuous_get@@DPDK_2.2                 /home/xyh/test/POFSwitch+DPDK+V1.0.5.3/dpdk-2.2.0/x86_64-native-linuxapp-gcc/lib/libdpdk.so
rte_eth_promiscuous_get@DPDK_2.2                  /home/xyh/test/POFSwitch+DPDK+V1.0.5.3/dpdk-2.2.0/x86_64-native-linuxapp-gcc/lib/libdpdk.so
rte_eth_rx_queue_info_get                         /home/xyh/test/POFSwitch+DPDK+V1.0.5.3/dpdk-2.2.0/x86_64-native-linuxapp-gcc/lib/libdpdk.so
                                                  config.o
rte_eth_rx_queue_info_get@@DPDK_2.2               /home/xyh/test/POFSwitch+DPDK+V1.0.5.3/dpdk-2.2.0/x86_64-native-linuxapp-gcc/lib/libdpdk.so
rte_eth_rx_queue_info_get@DPDK_2.2                /home/xyh/test/POFSwitch+DPDK+V1.0.5.3/dpdk-2.2.0/x86_64-native-linuxapp-gcc/lib/libdpdk.so
rte_eth_rx_queue_setup                            /home/xyh/test/POFSwitch+DPDK+V1.0.5.3/dpdk-2.2.0/x86_64-native-linuxapp-gcc/lib/libdpdk.so
                                                  testpmd.o
rte_eth_rx_queue_setup@@DPDK_2.2                  /home/xyh/test/POFSwitch+DPDK+V1.0.5.3/dpdk-2.2.0/x86_64-native-linuxapp-gcc/lib/libdpdk.so
rte_eth_rx_queue_setup@DPDK_2.2                   /home/xyh/test/POFSwitch+DPDK+V1.0.5.3/dpdk-2.2.0/x86_64-native-linuxapp-gcc/lib/libdpdk.so
rte_eth_set_queue_rate_limit                      /home/xyh/test/POFSwitch+DPDK+V1.0.5.3/dpdk-2.2.0/x86_64-native-linuxapp-gcc/lib/libdpdk.so
                                                  config.o
rte_eth_set_queue_rate_limit@@DPDK_2.2            /home/xyh/test/POFSwitch+DPDK+V1.0.5.3/dpdk-2.2.0/x86_64-native-linuxapp-gcc/lib/libdpdk.so
rte_eth_set_queue_rate_limit@DPDK_2.2             /home/xyh/test/POFSwitch+DPDK+V1.0.5.3/dpdk-2.2.0/x86_64-native-linuxapp-gcc/lib/libdpdk.so
rte_eth_set_vf_rate_limit                         /home/xyh/test/POFSwitch+DPDK+V1.0.5.3/dpdk-2.2.0/x86_64-native-linuxapp-gcc/lib/libdpdk.so
                                                  config.o
rte_eth_set_vf_rate_limit@@DPDK_2.2               /home/xyh/test/POFSwitch+DPDK+V1.0.5.3/dpdk-2.2.0/x86_64-native-linuxapp-gcc/lib/libdpdk.so
rte_eth_set_vf_rate_limit@DPDK_2.2                /home/xyh/test/POFSwitch+DPDK+V1.0.5.3/dpdk-2.2.0/x86_64-native-linuxapp-gcc/lib/libdpdk.so
rte_eth_stats_get                                 /home/xyh/test/POFSwitch+DPDK+V1.0.5.3/dpdk-2.2.0/x86_64-native-linuxapp-gcc/lib/libdpdk.so
                                                  config.o
                                                  testpmd.o
rte_eth_stats_get@@DPDK_2.2                       /home/xyh/test/POFSwitch+DPDK+V1.0.5.3/dpdk-2.2.0/x86_64-native-linuxapp-gcc/lib/libdpdk.so
rte_eth_stats_get@DPDK_2.2                        /home/xyh/test/POFSwitch+DPDK+V1.0.5.3/dpdk-2.2.0/x86_64-native-linuxapp-gcc/lib/libdpdk.so
rte_eth_stats_reset                               /home/xyh/test/POFSwitch+DPDK+V1.0.5.3/dpdk-2.2.0/x86_64-native-linuxapp-gcc/lib/libdpdk.so
                                                  config.o
rte_eth_stats_reset@@DPDK_2.2                     /home/xyh/test/POFSwitch+DPDK+V1.0.5.3/dpdk-2.2.0/x86_64-native-linuxapp-gcc/lib/libdpdk.so
rte_eth_stats_reset@DPDK_2.2                      /home/xyh/test/POFSwitch+DPDK+V1.0.5.3/dpdk-2.2.0/x86_64-native-linuxapp-gcc/lib/libdpdk.so
rte_eth_tx_queue_info_get                         /home/xyh/test/POFSwitch+DPDK+V1.0.5.3/dpdk-2.2.0/x86_64-native-linuxapp-gcc/lib/libdpdk.so
                                                  config.o
rte_eth_tx_queue_info_get@@DPDK_2.2               /home/xyh/test/POFSwitch+DPDK+V1.0.5.3/dpdk-2.2.0/x86_64-native-linuxapp-gcc/lib/libdpdk.so
rte_eth_tx_queue_info_get@DPDK_2.2                /home/xyh/test/POFSwitch+DPDK+V1.0.5.3/dpdk-2.2.0/x86_64-native-linuxapp-gcc/lib/libdpdk.so
rte_eth_tx_queue_setup                            /home/xyh/test/POFSwitch+DPDK+V1.0.5.3/dpdk-2.2.0/x86_64-native-linuxapp-gcc/lib/libdpdk.so
                                                  testpmd.o
rte_eth_tx_queue_setup@@DPDK_2.2                  /home/xyh/test/POFSwitch+DPDK+V1.0.5.3/dpdk-2.2.0/x86_64-native-linuxapp-gcc/lib/libdpdk.so
rte_eth_tx_queue_setup@DPDK_2.2                   /home/xyh/test/POFSwitch+DPDK+V1.0.5.3/dpdk-2.2.0/x86_64-native-linuxapp-gcc/lib/libdpdk.so
rte_eth_xstats_get                                /home/xyh/test/POFSwitch+DPDK+V1.0.5.3/dpdk-2.2.0/x86_64-native-linuxapp-gcc/lib/libdpdk.so
                                                  config.o
rte_eth_xstats_get@@DPDK_2.2                      /home/xyh/test/POFSwitch+DPDK+V1.0.5.3/dpdk-2.2.0/x86_64-native-linuxapp-gcc/lib/libdpdk.so
rte_eth_xstats_get@DPDK_2.2                       /home/xyh/test/POFSwitch+DPDK+V1.0.5.3/dpdk-2.2.0/x86_64-native-linuxapp-gcc/lib/libdpdk.so
rte_eth_xstats_reset                              /home/xyh/test/POFSwitch+DPDK+V1.0.5.3/dpdk-2.2.0/x86_64-native-linuxapp-gcc/lib/libdpdk.so
                                                  config.o
rte_eth_xstats_reset@@DPDK_2.2                    /home/xyh/test/POFSwitch+DPDK+V1.0.5.3/dpdk-2.2.0/x86_64-native-linuxapp-gcc/lib/libdpdk.so
rte_eth_xstats_reset@DPDK_2.2                     /home/xyh/test/POFSwitch+DPDK+V1.0.5.3/dpdk-2.2.0/x86_64-native-linuxapp-gcc/lib/libdpdk.so
rte_exit                                          /home/xyh/test/POFSwitch+DPDK+V1.0.5.3/dpdk-2.2.0/x86_64-native-linuxapp-gcc/lib/libdpdk.so
                                                  parameters.o
                                                  testpmd.o
rte_exit@@DPDK_2.0                                /home/xyh/test/POFSwitch+DPDK+V1.0.5.3/dpdk-2.2.0/x86_64-native-linuxapp-gcc/lib/libdpdk.so
rte_exit@DPDK_2.0                                 /home/xyh/test/POFSwitch+DPDK+V1.0.5.3/dpdk-2.2.0/x86_64-native-linuxapp-gcc/lib/libdpdk.so
rte_free                                          /home/xyh/test/POFSwitch+DPDK+V1.0.5.3/dpdk-2.2.0/x86_64-native-linuxapp-gcc/lib/libdpdk.so
                                                  testpmd.o
rte_free@@DPDK_2.0                                /home/xyh/test/POFSwitch+DPDK+V1.0.5.3/dpdk-2.2.0/x86_64-native-linuxapp-gcc/lib/libdpdk.so
rte_free@DPDK_2.0                                 /home/xyh/test/POFSwitch+DPDK+V1.0.5.3/dpdk-2.2.0/x86_64-native-linuxapp-gcc/lib/libdpdk.so
rte_get_rx_ol_flag_name                           /home/xyh/test/POFSwitch+DPDK+V1.0.5.3/dpdk-2.2.0/x86_64-native-linuxapp-gcc/lib/libdpdk.so
                                                  rxonly.o
rte_get_rx_ol_flag_name@@DPDK_2.0                 /home/xyh/test/POFSwitch+DPDK+V1.0.5.3/dpdk-2.2.0/x86_64-native-linuxapp-gcc/lib/libdpdk.so
rte_get_rx_ol_flag_name@DPDK_2.0                  /home/xyh/test/POFSwitch+DPDK+V1.0.5.3/dpdk-2.2.0/x86_64-native-linuxapp-gcc/lib/libdpdk.so
rte_get_tx_ol_flag_name                           /home/xyh/test/POFSwitch+DPDK+V1.0.5.3/dpdk-2.2.0/x86_64-native-linuxapp-gcc/lib/libdpdk.so
                                                  csumonly.o
rte_get_tx_ol_flag_name@@DPDK_2.0                 /home/xyh/test/POFSwitch+DPDK+V1.0.5.3/dpdk-2.2.0/x86_64-native-linuxapp-gcc/lib/libdpdk.so
rte_get_tx_ol_flag_name@DPDK_2.0                  /home/xyh/test/POFSwitch+DPDK+V1.0.5.3/dpdk-2.2.0/x86_64-native-linuxapp-gcc/lib/libdpdk.so
rte_log                                           /home/xyh/test/POFSwitch+DPDK+V1.0.5.3/dpdk-2.2.0/x86_64-native-linuxapp-gcc/lib/libdpdk.so
                                                  mempool_anon.o
                                                  csumonly.o
                                                  testpmd.o
rte_log@@DPDK_2.0                                 /home/xyh/test/POFSwitch+DPDK+V1.0.5.3/dpdk-2.2.0/x86_64-native-linuxapp-gcc/lib/libdpdk.so
rte_log@DPDK_2.0                                  /home/xyh/test/POFSwitch+DPDK+V1.0.5.3/dpdk-2.2.0/x86_64-native-linuxapp-gcc/lib/libdpdk.so
rte_log_dump_history                              /home/xyh/test/POFSwitch+DPDK+V1.0.5.3/dpdk-2.2.0/x86_64-native-linuxapp-gcc/lib/libdpdk.so
                                                  cmdline.o
rte_log_dump_history@@DPDK_2.0                    /home/xyh/test/POFSwitch+DPDK+V1.0.5.3/dpdk-2.2.0/x86_64-native-linuxapp-gcc/lib/libdpdk.so
rte_log_dump_history@DPDK_2.0                     /home/xyh/test/POFSwitch+DPDK+V1.0.5.3/dpdk-2.2.0/x86_64-native-linuxapp-gcc/lib/libdpdk.so
rte_mem_virt2phy                                  /home/xyh/test/POFSwitch+DPDK+V1.0.5.3/dpdk-2.2.0/x86_64-native-linuxapp-gcc/lib/libdpdk.so
                                                  icmpecho.o
                                                  csumonly.o
                                                  txonly.o
                                                  rxonly.o
                                                  flowgen.o
                                                  macswap.o
                                                  macfwd-retry.o
                                                  macfwd.o
                                                  iofwd.o
                                                  testpmd.o
rte_mem_virt2phy@@DPDK_2.0                        /home/xyh/test/POFSwitch+DPDK+V1.0.5.3/dpdk-2.2.0/x86_64-native-linuxapp-gcc/lib/libdpdk.so
rte_mem_virt2phy@DPDK_2.0                         /home/xyh/test/POFSwitch+DPDK+V1.0.5.3/dpdk-2.2.0/x86_64-native-linuxapp-gcc/lib/libdpdk.so
rte_mempool_calc_obj_size                         /home/xyh/test/POFSwitch+DPDK+V1.0.5.3/dpdk-2.2.0/x86_64-native-linuxapp-gcc/lib/libdpdk.so
                                                  mempool_anon.o
rte_mempool_calc_obj_size@@DPDK_2.0               /home/xyh/test/POFSwitch+DPDK+V1.0.5.3/dpdk-2.2.0/x86_64-native-linuxapp-gcc/lib/libdpdk.so
rte_mempool_calc_obj_size@DPDK_2.0                /home/xyh/test/POFSwitch+DPDK+V1.0.5.3/dpdk-2.2.0/x86_64-native-linuxapp-gcc/lib/libdpdk.so
rte_mempool_dump                                  /home/xyh/test/POFSwitch+DPDK+V1.0.5.3/dpdk-2.2.0/x86_64-native-linuxapp-gcc/lib/libdpdk.so
                                                  cmdline.o
                                                  testpmd.o
rte_mempool_dump@@DPDK_2.0                        /home/xyh/test/POFSwitch+DPDK+V1.0.5.3/dpdk-2.2.0/x86_64-native-linuxapp-gcc/lib/libdpdk.so
rte_mempool_dump@DPDK_2.0                         /home/xyh/test/POFSwitch+DPDK+V1.0.5.3/dpdk-2.2.0/x86_64-native-linuxapp-gcc/lib/libdpdk.so
rte_mempool_list_dump                             /home/xyh/test/POFSwitch+DPDK+V1.0.5.3/dpdk-2.2.0/x86_64-native-linuxapp-gcc/lib/libdpdk.so
                                                  cmdline.o
rte_mempool_list_dump@@DPDK_2.0                   /home/xyh/test/POFSwitch+DPDK+V1.0.5.3/dpdk-2.2.0/x86_64-native-linuxapp-gcc/lib/libdpdk.so
rte_mempool_list_dump@DPDK_2.0                    /home/xyh/test/POFSwitch+DPDK+V1.0.5.3/dpdk-2.2.0/x86_64-native-linuxapp-gcc/lib/libdpdk.so
rte_mempool_lookup                                /home/xyh/test/POFSwitch+DPDK+V1.0.5.3/dpdk-2.2.0/x86_64-native-linuxapp-gcc/lib/libdpdk.so
                                                  config.o
                                                  cmdline.o
                                                  testpmd.o
rte_mempool_lookup@@DPDK_2.0                      /home/xyh/test/POFSwitch+DPDK+V1.0.5.3/dpdk-2.2.0/x86_64-native-linuxapp-gcc/lib/libdpdk.so
rte_mempool_lookup@DPDK_2.0                       /home/xyh/test/POFSwitch+DPDK+V1.0.5.3/dpdk-2.2.0/x86_64-native-linuxapp-gcc/lib/libdpdk.so
rte_mempool_xmem_create                           /home/xyh/test/POFSwitch+DPDK+V1.0.5.3/dpdk-2.2.0/x86_64-native-linuxapp-gcc/lib/libdpdk.so
                                                  mempool_anon.o
rte_mempool_xmem_create@@DPDK_2.0                 /home/xyh/test/POFSwitch+DPDK+V1.0.5.3/dpdk-2.2.0/x86_64-native-linuxapp-gcc/lib/libdpdk.so
rte_mempool_xmem_create@DPDK_2.0                  /home/xyh/test/POFSwitch+DPDK+V1.0.5.3/dpdk-2.2.0/x86_64-native-linuxapp-gcc/lib/libdpdk.so
rte_mempool_xmem_size                             /home/xyh/test/POFSwitch+DPDK+V1.0.5.3/dpdk-2.2.0/x86_64-native-linuxapp-gcc/lib/libdpdk.so
                                                  mempool_anon.o
rte_mempool_xmem_size@@DPDK_2.0                   /home/xyh/test/POFSwitch+DPDK+V1.0.5.3/dpdk-2.2.0/x86_64-native-linuxapp-gcc/lib/libdpdk.so
rte_mempool_xmem_size@DPDK_2.0                    /home/xyh/test/POFSwitch+DPDK+V1.0.5.3/dpdk-2.2.0/x86_64-native-linuxapp-gcc/lib/libdpdk.so
rte_mempool_xmem_usage                            /home/xyh/test/POFSwitch+DPDK+V1.0.5.3/dpdk-2.2.0/x86_64-native-linuxapp-gcc/lib/libdpdk.so
                                                  mempool_anon.o
rte_mempool_xmem_usage@@DPDK_2.0                  /home/xyh/test/POFSwitch+DPDK+V1.0.5.3/dpdk-2.2.0/x86_64-native-linuxapp-gcc/lib/libdpdk.so
rte_mempool_xmem_usage@DPDK_2.0                   /home/xyh/test/POFSwitch+DPDK+V1.0.5.3/dpdk-2.2.0/x86_64-native-linuxapp-gcc/lib/libdpdk.so
rte_memzone_dump                                  /home/xyh/test/POFSwitch+DPDK+V1.0.5.3/dpdk-2.2.0/x86_64-native-linuxapp-gcc/lib/libdpdk.so
                                                  cmdline.o
rte_memzone_dump@@DPDK_2.0                        /home/xyh/test/POFSwitch+DPDK+V1.0.5.3/dpdk-2.2.0/x86_64-native-linuxapp-gcc/lib/libdpdk.so
rte_memzone_dump@DPDK_2.0                         /home/xyh/test/POFSwitch+DPDK+V1.0.5.3/dpdk-2.2.0/x86_64-native-linuxapp-gcc/lib/libdpdk.so
rte_memzone_lookup                                /home/xyh/test/POFSwitch+DPDK+V1.0.5.3/dpdk-2.2.0/x86_64-native-linuxapp-gcc/lib/libdpdk.so
                                                  config.o
rte_memzone_lookup@@DPDK_2.0                      /home/xyh/test/POFSwitch+DPDK+V1.0.5.3/dpdk-2.2.0/x86_64-native-linuxapp-gcc/lib/libdpdk.so
rte_memzone_lookup@DPDK_2.0                       /home/xyh/test/POFSwitch+DPDK+V1.0.5.3/dpdk-2.2.0/x86_64-native-linuxapp-gcc/lib/libdpdk.so
rte_pktmbuf_pool_create                           /home/xyh/test/POFSwitch+DPDK+V1.0.5.3/dpdk-2.2.0/x86_64-native-linuxapp-gcc/lib/libdpdk.so
                                                  testpmd.o
rte_pktmbuf_pool_create@@DPDK_2.1                 /home/xyh/test/POFSwitch+DPDK+V1.0.5.3/dpdk-2.2.0/x86_64-native-linuxapp-gcc/lib/libdpdk.so
rte_pktmbuf_pool_create@DPDK_2.1                  /home/xyh/test/POFSwitch+DPDK+V1.0.5.3/dpdk-2.2.0/x86_64-native-linuxapp-gcc/lib/libdpdk.so
rte_ring_dump                                     /home/xyh/test/POFSwitch+DPDK+V1.0.5.3/dpdk-2.2.0/x86_64-native-linuxapp-gcc/lib/libdpdk.so
                                                  cmdline.o
rte_ring_dump@@DPDK_2.0                           /home/xyh/test/POFSwitch+DPDK+V1.0.5.3/dpdk-2.2.0/x86_64-native-linuxapp-gcc/lib/libdpdk.so
rte_ring_dump@DPDK_2.0                            /home/xyh/test/POFSwitch+DPDK+V1.0.5.3/dpdk-2.2.0/x86_64-native-linuxapp-gcc/lib/libdpdk.so
rte_ring_list_dump                                /home/xyh/test/POFSwitch+DPDK+V1.0.5.3/dpdk-2.2.0/x86_64-native-linuxapp-gcc/lib/libdpdk.so
                                                  cmdline.o
rte_ring_list_dump@@DPDK_2.0                      /home/xyh/test/POFSwitch+DPDK+V1.0.5.3/dpdk-2.2.0/x86_64-native-linuxapp-gcc/lib/libdpdk.so
rte_ring_list_dump@DPDK_2.0                       /home/xyh/test/POFSwitch+DPDK+V1.0.5.3/dpdk-2.2.0/x86_64-native-linuxapp-gcc/lib/libdpdk.so
rte_ring_lookup                                   /home/xyh/test/POFSwitch+DPDK+V1.0.5.3/dpdk-2.2.0/x86_64-native-linuxapp-gcc/lib/libdpdk.so
                                                  cmdline.o
rte_ring_lookup@@DPDK_2.0                         /home/xyh/test/POFSwitch+DPDK+V1.0.5.3/dpdk-2.2.0/x86_64-native-linuxapp-gcc/lib/libdpdk.so
rte_ring_lookup@DPDK_2.0                          /home/xyh/test/POFSwitch+DPDK+V1.0.5.3/dpdk-2.2.0/x86_64-native-linuxapp-gcc/lib/libdpdk.so
rte_strsplit                                      /home/xyh/test/POFSwitch+DPDK+V1.0.5.3/dpdk-2.2.0/x86_64-native-linuxapp-gcc/lib/libdpdk.so
                                                  cmdline.o
                                                  parameters.o
rte_strsplit@@DPDK_2.0                            /home/xyh/test/POFSwitch+DPDK+V1.0.5.3/dpdk-2.2.0/x86_64-native-linuxapp-gcc/lib/libdpdk.so
rte_strsplit@DPDK_2.0                             /home/xyh/test/POFSwitch+DPDK+V1.0.5.3/dpdk-2.2.0/x86_64-native-linuxapp-gcc/lib/libdpdk.so
rte_zmalloc                                       /home/xyh/test/POFSwitch+DPDK+V1.0.5.3/dpdk-2.2.0/x86_64-native-linuxapp-gcc/lib/libdpdk.so
                                                  testpmd.o
rte_zmalloc@@DPDK_2.0                             /home/xyh/test/POFSwitch+DPDK+V1.0.5.3/dpdk-2.2.0/x86_64-native-linuxapp-gcc/lib/libdpdk.so
rte_zmalloc@DPDK_2.0                              /home/xyh/test/POFSwitch+DPDK+V1.0.5.3/dpdk-2.2.0/x86_64-native-linuxapp-gcc/lib/libdpdk.so
rx_drop_en                                        testpmd.o
                                                  cmdline.o
                                                  parameters.o
rx_free_thresh                                    testpmd.o
                                                  cmdline.o
                                                  parameters.o
rx_hthresh                                        testpmd.o
                                                  cmdline.o
                                                  parameters.o
rx_mode                                           testpmd.o
                                                  config.o
                                                  cmdline.o
                                                  parameters.o
rx_only_engine                                    rxonly.o
                                                  testpmd.o
rx_pthresh                                        testpmd.o
                                                  cmdline.o
                                                  parameters.o
rx_queue_id_is_invalid                            config.o
                                                  cmdline.o
rx_queue_infos_display                            config.o
                                                  cmdline.o
rx_queue_stats_mappings                           testpmd.o
                                                  config.o
                                                  parameters.o
rx_queue_stats_mappings_array                     testpmd.o
                                                  parameters.o
rx_ring_desc_display                              config.o
                                                  cmdline.o
rx_vft_set                                        config.o
                                                  cmdline.o
                                                  testpmd.o
rx_vlan_all_filter_set                            config.o
                                                  cmdline.o
rx_vlan_filter_set                                config.o
                                                  cmdline.o
rx_vlan_strip_set                                 config.o
                                                  cmdline.o
rx_vlan_strip_set_on_queue                        config.o
                                                  cmdline.o
rx_wthresh                                        testpmd.o
                                                  cmdline.o
                                                  parameters.o
rxring_numa                                       icmpecho.o
                                                  csumonly.o
                                                  txonly.o
                                                  rxonly.o
                                                  flowgen.o
                                                  macswap.o
                                                  macfwd-retry.o
                                                  macfwd.o
                                                  iofwd.o
                                                  config.o
                                                  cmdline.o
                                                  parameters.o
                                                  testpmd.o
rxtx_config_display                               config.o
                                                  cmdline.o
                                                  testpmd.o
sbrk                                              /lib/x86_64-linux-gnu/libc.so.6
sbrk@@GLIBC_2.2.5                                 /lib/x86_64-linux-gnu/libc.so.6
sbrk@GLIBC_2.2.5                                  /lib/x86_64-linux-gnu/libc.so.6
scalb                                             /usr/lib/gcc/x86_64-linux-gnu/4.9/../../../x86_64-linux-gnu/libm.so
scalb@@GLIBC_2.2.5                                /usr/lib/gcc/x86_64-linux-gnu/4.9/../../../x86_64-linux-gnu/libm.so
scalb@GLIBC_2.2.5                                 /usr/lib/gcc/x86_64-linux-gnu/4.9/../../../x86_64-linux-gnu/libm.so
scalbf                                            /usr/lib/gcc/x86_64-linux-gnu/4.9/../../../x86_64-linux-gnu/libm.so
scalbf@@GLIBC_2.2.5                               /usr/lib/gcc/x86_64-linux-gnu/4.9/../../../x86_64-linux-gnu/libm.so
scalbf@GLIBC_2.2.5                                /usr/lib/gcc/x86_64-linux-gnu/4.9/../../../x86_64-linux-gnu/libm.so
scalbl                                            /usr/lib/gcc/x86_64-linux-gnu/4.9/../../../x86_64-linux-gnu/libm.so
scalbl@@GLIBC_2.2.5                               /usr/lib/gcc/x86_64-linux-gnu/4.9/../../../x86_64-linux-gnu/libm.so
scalbl@GLIBC_2.2.5                                /usr/lib/gcc/x86_64-linux-gnu/4.9/../../../x86_64-linux-gnu/libm.so
scalbln                                           /usr/lib/gcc/x86_64-linux-gnu/4.9/../../../x86_64-linux-gnu/libm.so
scalbln@@GLIBC_2.2.5                              /usr/lib/gcc/x86_64-linux-gnu/4.9/../../../x86_64-linux-gnu/libm.so
scalbln@GLIBC_2.2.5                               /usr/lib/gcc/x86_64-linux-gnu/4.9/../../../x86_64-linux-gnu/libm.so
scalblnf                                          /usr/lib/gcc/x86_64-linux-gnu/4.9/../../../x86_64-linux-gnu/libm.so
scalblnf@@GLIBC_2.2.5                             /usr/lib/gcc/x86_64-linux-gnu/4.9/../../../x86_64-linux-gnu/libm.so
scalblnf@GLIBC_2.2.5                              /usr/lib/gcc/x86_64-linux-gnu/4.9/../../../x86_64-linux-gnu/libm.so
scalblnl                                          /usr/lib/gcc/x86_64-linux-gnu/4.9/../../../x86_64-linux-gnu/libm.so
scalblnl@@GLIBC_2.2.5                             /usr/lib/gcc/x86_64-linux-gnu/4.9/../../../x86_64-linux-gnu/libm.so
scalblnl@GLIBC_2.2.5                              /usr/lib/gcc/x86_64-linux-gnu/4.9/../../../x86_64-linux-gnu/libm.so
scalbn                                            /usr/lib/gcc/x86_64-linux-gnu/4.9/../../../x86_64-linux-gnu/libm.so
scalbn@@GLIBC_2.2.5                               /usr/lib/gcc/x86_64-linux-gnu/4.9/../../../x86_64-linux-gnu/libm.so
                                                  /lib/x86_64-linux-gnu/libc.so.6
scalbn@GLIBC_2.2.5                                /usr/lib/gcc/x86_64-linux-gnu/4.9/../../../x86_64-linux-gnu/libm.so
scalbnf                                           /usr/lib/gcc/x86_64-linux-gnu/4.9/../../../x86_64-linux-gnu/libm.so
scalbnf@@GLIBC_2.2.5                              /usr/lib/gcc/x86_64-linux-gnu/4.9/../../../x86_64-linux-gnu/libm.so
                                                  /lib/x86_64-linux-gnu/libc.so.6
scalbnf@GLIBC_2.2.5                               /usr/lib/gcc/x86_64-linux-gnu/4.9/../../../x86_64-linux-gnu/libm.so
scalbnl                                           /usr/lib/gcc/x86_64-linux-gnu/4.9/../../../x86_64-linux-gnu/libm.so
scalbnl@@GLIBC_2.2.5                              /usr/lib/gcc/x86_64-linux-gnu/4.9/../../../x86_64-linux-gnu/libm.so
                                                  /lib/x86_64-linux-gnu/libc.so.6
scalbnl@GLIBC_2.2.5                               /usr/lib/gcc/x86_64-linux-gnu/4.9/../../../x86_64-linux-gnu/libm.so
scandir64                                         /lib/x86_64-linux-gnu/libc.so.6
scandir64@@GLIBC_2.2.5                            /lib/x86_64-linux-gnu/libc.so.6
scandir64@GLIBC_2.2.5                             /lib/x86_64-linux-gnu/libc.so.6
scandirat64                                       /lib/x86_64-linux-gnu/libc.so.6
scandirat64@@GLIBC_2.15                           /lib/x86_64-linux-gnu/libc.so.6
scandirat64@GLIBC_2.15                            /lib/x86_64-linux-gnu/libc.so.6
sched_get_priority_max                            /lib/x86_64-linux-gnu/libc.so.6
sched_get_priority_max@@GLIBC_2.2.5               /lib/x86_64-linux-gnu/libc.so.6
sched_get_priority_max@GLIBC_2.2.5                /lib/x86_64-linux-gnu/libc.so.6
                                                  /lib/x86_64-linux-gnu/libpthread.so.0
sched_get_priority_min                            /lib/x86_64-linux-gnu/libc.so.6
sched_get_priority_min@@GLIBC_2.2.5               /lib/x86_64-linux-gnu/libc.so.6
sched_get_priority_min@GLIBC_2.2.5                /lib/x86_64-linux-gnu/libc.so.6
                                                  /lib/x86_64-linux-gnu/libpthread.so.0
sched_getparam                                    /lib/x86_64-linux-gnu/libc.so.6
sched_getparam@@GLIBC_2.2.5                       /lib/x86_64-linux-gnu/libc.so.6
sched_getparam@GLIBC_2.2.5                        /lib/x86_64-linux-gnu/libc.so.6
sched_getscheduler                                /lib/x86_64-linux-gnu/libc.so.6
sched_getscheduler@@GLIBC_2.2.5                   /lib/x86_64-linux-gnu/libc.so.6
sched_getscheduler@GLIBC_2.2.5                    /lib/x86_64-linux-gnu/libc.so.6
sched_rr_get_interval                             /lib/x86_64-linux-gnu/libc.so.6
sched_rr_get_interval@@GLIBC_2.2.5                /lib/x86_64-linux-gnu/libc.so.6
sched_rr_get_interval@GLIBC_2.2.5                 /lib/x86_64-linux-gnu/libc.so.6
sched_setparam                                    /lib/x86_64-linux-gnu/libc.so.6
sched_setparam@@GLIBC_2.2.5                       /lib/x86_64-linux-gnu/libc.so.6
sched_setparam@GLIBC_2.2.5                        /lib/x86_64-linux-gnu/libc.so.6
                                                  /lib/x86_64-linux-gnu/libpthread.so.0
sched_setscheduler                                /lib/x86_64-linux-gnu/libc.so.6
sched_setscheduler@@GLIBC_2.2.5                   /lib/x86_64-linux-gnu/libc.so.6
sched_setscheduler@GLIBC_2.2.5                    /lib/x86_64-linux-gnu/libc.so.6
sched_yield                                       /lib/x86_64-linux-gnu/libc.so.6
sched_yield@@GLIBC_2.2.5                          /lib/x86_64-linux-gnu/libc.so.6
sched_yield@GLIBC_2.2.5                           /lib/x86_64-linux-gnu/libc.so.6
                                                  /lib/x86_64-linux-gnu/libpthread.so.0
secure_getenv                                     /lib/x86_64-linux-gnu/libc.so.6
secure_getenv@@GLIBC_2.17                         /lib/x86_64-linux-gnu/libc.so.6
secure_getenv@GLIBC_2.17                          /lib/x86_64-linux-gnu/libc.so.6
seed48_r                                          /lib/x86_64-linux-gnu/libc.so.6
seed48_r@@GLIBC_2.2.5                             /lib/x86_64-linux-gnu/libc.so.6
seed48_r@GLIBC_2.2.5                              /lib/x86_64-linux-gnu/libc.so.6
select                                            /lib/x86_64-linux-gnu/libc.so.6
select@@GLIBC_2.2.5                               /lib/x86_64-linux-gnu/libc.so.6
select@GLIBC_2.2.5                                /lib/x86_64-linux-gnu/libc.so.6
                                                  /home/xyh/test/POFSwitch+DPDK+V1.0.5.3/dpdk-2.2.0/x86_64-native-linuxapp-gcc/lib/libdpdk.so
semctl                                            /lib/x86_64-linux-gnu/libc.so.6
semctl@@GLIBC_2.2.5                               /lib/x86_64-linux-gnu/libc.so.6
semctl@GLIBC_2.2.5                                /lib/x86_64-linux-gnu/libc.so.6
semget                                            /lib/x86_64-linux-gnu/libc.so.6
semget@@GLIBC_2.2.5                               /lib/x86_64-linux-gnu/libc.so.6
semget@GLIBC_2.2.5                                /lib/x86_64-linux-gnu/libc.so.6
semop                                             /lib/x86_64-linux-gnu/libc.so.6
semop@@GLIBC_2.2.5                                /lib/x86_64-linux-gnu/libc.so.6
semop@GLIBC_2.2.5                                 /lib/x86_64-linux-gnu/libc.so.6
send                                              /lib/x86_64-linux-gnu/libpthread.so.0
send@@GLIBC_2.2.5                                 /lib/x86_64-linux-gnu/libpthread.so.0
                                                  /lib/x86_64-linux-gnu/libc.so.6
send@GLIBC_2.2.5                                  /lib/x86_64-linux-gnu/libpthread.so.0
sendfile64                                        /lib/x86_64-linux-gnu/libc.so.6
sendfile64@@GLIBC_2.3                             /lib/x86_64-linux-gnu/libc.so.6
sendfile64@GLIBC_2.3                              /lib/x86_64-linux-gnu/libc.so.6
sendmmsg                                          /lib/x86_64-linux-gnu/libc.so.6
sendmmsg@@GLIBC_2.14                              /lib/x86_64-linux-gnu/libc.so.6
sendmmsg@GLIBC_2.14                               /lib/x86_64-linux-gnu/libc.so.6
sendmsg                                           /lib/x86_64-linux-gnu/libpthread.so.0
sendmsg@@GLIBC_2.2.5                              /lib/x86_64-linux-gnu/libpthread.so.0
                                                  /lib/x86_64-linux-gnu/libc.so.6
sendmsg@GLIBC_2.2.5                               /lib/x86_64-linux-gnu/libpthread.so.0
                                                  /home/xyh/test/POFSwitch+DPDK+V1.0.5.3/dpdk-2.2.0/x86_64-native-linuxapp-gcc/lib/libdpdk.so
sendto                                            /lib/x86_64-linux-gnu/libpthread.so.0
sendto@@GLIBC_2.2.5                               /lib/x86_64-linux-gnu/libpthread.so.0
                                                  /lib/x86_64-linux-gnu/libc.so.6
sendto@GLIBC_2.2.5                                /lib/x86_64-linux-gnu/libpthread.so.0
                                                  /home/xyh/test/POFSwitch+DPDK+V1.0.5.3/dpdk-2.2.0/x86_64-native-linuxapp-gcc/lib/libdpdk.so
set_def_fwd_config                                testpmd.o
                                                  cmdline.o
set_fwd_lcores_list                               config.o
                                                  cmdline.o
set_fwd_lcores_mask                               config.o
                                                  cmdline.o
                                                  parameters.o
set_fwd_lcores_number                             config.o
                                                  cmdline.o
set_fwd_ports_list                                config.o
                                                  cmdline.o
set_fwd_ports_mask                                config.o
                                                  cmdline.o
                                                  parameters.o
set_fwd_ports_number                              config.o
                                                  cmdline.o
set_nb_pkt_per_burst                              config.o
                                                  cmdline.o
set_pkt_forwarding_mode                           config.o
                                                  cmdline.o
                                                  parameters.o
set_port_slave_flag                               testpmd.o
                                                  cmdline.o
set_qmap                                          config.o
                                                  cmdline.o
set_queue_rate_limit                              config.o
                                                  cmdline.o
set_tx_pkt_segments                               config.o
                                                  cmdline.o
                                                  parameters.o
set_tx_pkt_split                                  config.o
                                                  cmdline.o
set_verbose_level                                 config.o
                                                  cmdline.o
set_vf_rate_limit                                 config.o
                                                  cmdline.o
set_vf_rx_vlan                                    config.o
                                                  cmdline.o
set_vf_traffic                                    config.o
                                                  cmdline.o
setbuffer                                         /lib/x86_64-linux-gnu/libc.so.6
setbuffer@@GLIBC_2.2.5                            /lib/x86_64-linux-gnu/libc.so.6
setbuffer@GLIBC_2.2.5                             /lib/x86_64-linux-gnu/libc.so.6
setcontext                                        /lib/x86_64-linux-gnu/libc.so.6
setcontext@@GLIBC_2.2.5                           /lib/x86_64-linux-gnu/libc.so.6
setcontext@GLIBC_2.2.5                            /lib/x86_64-linux-gnu/libc.so.6
setenv                                            /lib/x86_64-linux-gnu/libc.so.6
setenv@@GLIBC_2.2.5                               /lib/x86_64-linux-gnu/libc.so.6
setenv@GLIBC_2.2.5                                /lib/x86_64-linux-gnu/libc.so.6
setgid                                            /lib/x86_64-linux-gnu/libc.so.6
setgid@@GLIBC_2.2.5                               /lib/x86_64-linux-gnu/libc.so.6
setgid@GLIBC_2.2.5                                /lib/x86_64-linux-gnu/libc.so.6
setitimer                                         /lib/x86_64-linux-gnu/libc.so.6
setitimer@@GLIBC_2.2.5                            /lib/x86_64-linux-gnu/libc.so.6
setitimer@GLIBC_2.2.5                             /lib/x86_64-linux-gnu/libc.so.6
setmntent                                         /lib/x86_64-linux-gnu/libc.so.6
setmntent@@GLIBC_2.2.5                            /lib/x86_64-linux-gnu/libc.so.6
setmntent@GLIBC_2.2.5                             /lib/x86_64-linux-gnu/libc.so.6
setpgid                                           /lib/x86_64-linux-gnu/libc.so.6
setpgid@@GLIBC_2.2.5                              /lib/x86_64-linux-gnu/libc.so.6
setpgid@GLIBC_2.2.5                               /lib/x86_64-linux-gnu/libc.so.6
setregid                                          /lib/x86_64-linux-gnu/libc.so.6
setregid@@GLIBC_2.2.5                             /lib/x86_64-linux-gnu/libc.so.6
setregid@GLIBC_2.2.5                              /lib/x86_64-linux-gnu/libc.so.6
setresgid                                         /lib/x86_64-linux-gnu/libc.so.6
setresgid@@GLIBC_2.2.5                            /lib/x86_64-linux-gnu/libc.so.6
setresgid@GLIBC_2.2.5                             /lib/x86_64-linux-gnu/libc.so.6
setresuid                                         /lib/x86_64-linux-gnu/libc.so.6
setresuid@@GLIBC_2.2.5                            /lib/x86_64-linux-gnu/libc.so.6
setresuid@GLIBC_2.2.5                             /lib/x86_64-linux-gnu/libc.so.6
setreuid                                          /lib/x86_64-linux-gnu/libc.so.6
setreuid@@GLIBC_2.2.5                             /lib/x86_64-linux-gnu/libc.so.6
setreuid@GLIBC_2.2.5                              /lib/x86_64-linux-gnu/libc.so.6
setrlimit                                         /lib/x86_64-linux-gnu/libc.so.6
setrlimit64                                       /lib/x86_64-linux-gnu/libc.so.6
setrlimit64@@GLIBC_2.2.5                          /lib/x86_64-linux-gnu/libc.so.6
setrlimit64@GLIBC_2.2.5                           /lib/x86_64-linux-gnu/libc.so.6
setrlimit@@GLIBC_2.2.5                            /lib/x86_64-linux-gnu/libc.so.6
setrlimit@GLIBC_2.2.5                             /lib/x86_64-linux-gnu/libc.so.6
setsid                                            /lib/x86_64-linux-gnu/libc.so.6
setsid@@GLIBC_2.2.5                               /lib/x86_64-linux-gnu/libc.so.6
setsid@GLIBC_2.2.5                                /lib/x86_64-linux-gnu/libc.so.6
setsockopt                                        /lib/x86_64-linux-gnu/libc.so.6
setsockopt@@GLIBC_2.2.5                           /lib/x86_64-linux-gnu/libc.so.6
setsockopt@GLIBC_2.2.5                            /lib/x86_64-linux-gnu/libc.so.6
                                                  /home/xyh/test/POFSwitch+DPDK+V1.0.5.3/dpdk-2.2.0/x86_64-native-linuxapp-gcc/lib/libdpdk.so
setstate                                          /lib/x86_64-linux-gnu/libc.so.6
setstate@@GLIBC_2.2.5                             /lib/x86_64-linux-gnu/libc.so.6
setstate@GLIBC_2.2.5                              /lib/x86_64-linux-gnu/libc.so.6
setstate_r                                        /lib/x86_64-linux-gnu/libc.so.6
setstate_r@@GLIBC_2.2.5                           /lib/x86_64-linux-gnu/libc.so.6
setstate_r@GLIBC_2.2.5                            /lib/x86_64-linux-gnu/libc.so.6
settimeofday                                      /lib/x86_64-linux-gnu/libc.so.6
settimeofday@@GLIBC_2.2.5                         /lib/x86_64-linux-gnu/libc.so.6
settimeofday@GLIBC_2.2.5                          /lib/x86_64-linux-gnu/libc.so.6
setuid                                            /lib/x86_64-linux-gnu/libc.so.6
setuid@@GLIBC_2.2.5                               /lib/x86_64-linux-gnu/libc.so.6
setuid@GLIBC_2.2.5                                /lib/x86_64-linux-gnu/libc.so.6
setutent                                          /lib/x86_64-linux-gnu/libc.so.6
setutent@@GLIBC_2.2.5                             /lib/x86_64-linux-gnu/libc.so.6
setutent@GLIBC_2.2.5                              /lib/x86_64-linux-gnu/libc.so.6
setvbuf                                           /lib/x86_64-linux-gnu/libc.so.6
setvbuf@@GLIBC_2.2.5                              /lib/x86_64-linux-gnu/libc.so.6
setvbuf@GLIBC_2.2.5                               /lib/x86_64-linux-gnu/libc.so.6
sgetsgent_r                                       /lib/x86_64-linux-gnu/libc.so.6
sgetsgent_r@@GLIBC_2.10                           /lib/x86_64-linux-gnu/libc.so.6
sgetsgent_r@GLIBC_2.10                            /lib/x86_64-linux-gnu/libc.so.6
sgetspent_r                                       /lib/x86_64-linux-gnu/libc.so.6
sgetspent_r@@GLIBC_2.2.5                          /lib/x86_64-linux-gnu/libc.so.6
sgetspent_r@GLIBC_2.2.5                           /lib/x86_64-linux-gnu/libc.so.6
shmat                                             /lib/x86_64-linux-gnu/libc.so.6
shmat@@GLIBC_2.2.5                                /lib/x86_64-linux-gnu/libc.so.6
shmat@GLIBC_2.2.5                                 /lib/x86_64-linux-gnu/libc.so.6
shmctl                                            /lib/x86_64-linux-gnu/libc.so.6
shmctl@@GLIBC_2.2.5                               /lib/x86_64-linux-gnu/libc.so.6
shmctl@GLIBC_2.2.5                                /lib/x86_64-linux-gnu/libc.so.6
shmdt                                             /lib/x86_64-linux-gnu/libc.so.6
shmdt@@GLIBC_2.2.5                                /lib/x86_64-linux-gnu/libc.so.6
shmdt@GLIBC_2.2.5                                 /lib/x86_64-linux-gnu/libc.so.6
shmget                                            /lib/x86_64-linux-gnu/libc.so.6
shmget@@GLIBC_2.2.5                               /lib/x86_64-linux-gnu/libc.so.6
shmget@GLIBC_2.2.5                                /lib/x86_64-linux-gnu/libc.so.6
show_tx_pkt_segments                              config.o
                                                  cmdline.o
shutdown                                          /lib/x86_64-linux-gnu/libc.so.6
shutdown@@GLIBC_2.2.5                             /lib/x86_64-linux-gnu/libc.so.6
shutdown@GLIBC_2.2.5                              /lib/x86_64-linux-gnu/libc.so.6
sigaction                                         /lib/x86_64-linux-gnu/libpthread.so.0
sigaction@@GLIBC_2.2.5                            /lib/x86_64-linux-gnu/libpthread.so.0
                                                  /lib/x86_64-linux-gnu/libc.so.6
sigaction@GLIBC_2.2.5                             /lib/x86_64-linux-gnu/libpthread.so.0
sigaltstack                                       /lib/x86_64-linux-gnu/libc.so.6
sigaltstack@@GLIBC_2.2.5                          /lib/x86_64-linux-gnu/libc.so.6
sigaltstack@GLIBC_2.2.5                           /lib/x86_64-linux-gnu/libc.so.6
sigblock                                          /lib/x86_64-linux-gnu/libc.so.6
sigblock@@GLIBC_2.2.5                             /lib/x86_64-linux-gnu/libc.so.6
sigblock@GLIBC_2.2.5                              /lib/x86_64-linux-gnu/libc.so.6
siglongjmp                                        /lib/x86_64-linux-gnu/libpthread.so.0
siglongjmp@@GLIBC_2.2.5                           /lib/x86_64-linux-gnu/libpthread.so.0
                                                  /lib/x86_64-linux-gnu/libc.so.6
siglongjmp@GLIBC_2.2.5                            /lib/x86_64-linux-gnu/libpthread.so.0
signal                                            /lib/x86_64-linux-gnu/libc.so.6
signal@@GLIBC_2.2.5                               /lib/x86_64-linux-gnu/libc.so.6
signal@GLIBC_2.2.5                                /lib/x86_64-linux-gnu/libc.so.6
significand                                       /usr/lib/gcc/x86_64-linux-gnu/4.9/../../../x86_64-linux-gnu/libm.so
significand@@GLIBC_2.2.5                          /usr/lib/gcc/x86_64-linux-gnu/4.9/../../../x86_64-linux-gnu/libm.so
significand@GLIBC_2.2.5                           /usr/lib/gcc/x86_64-linux-gnu/4.9/../../../x86_64-linux-gnu/libm.so
significandf                                      /usr/lib/gcc/x86_64-linux-gnu/4.9/../../../x86_64-linux-gnu/libm.so
significandf@@GLIBC_2.2.5                         /usr/lib/gcc/x86_64-linux-gnu/4.9/../../../x86_64-linux-gnu/libm.so
significandf@GLIBC_2.2.5                          /usr/lib/gcc/x86_64-linux-gnu/4.9/../../../x86_64-linux-gnu/libm.so
significandl                                      /usr/lib/gcc/x86_64-linux-gnu/4.9/../../../x86_64-linux-gnu/libm.so
significandl@@GLIBC_2.2.5                         /usr/lib/gcc/x86_64-linux-gnu/4.9/../../../x86_64-linux-gnu/libm.so
significandl@GLIBC_2.2.5                          /usr/lib/gcc/x86_64-linux-gnu/4.9/../../../x86_64-linux-gnu/libm.so
sigpause                                          /lib/x86_64-linux-gnu/libc.so.6
sigpause@@GLIBC_2.2.5                             /lib/x86_64-linux-gnu/libc.so.6
sigpause@GLIBC_2.2.5                              /lib/x86_64-linux-gnu/libc.so.6
sigprocmask                                       /lib/x86_64-linux-gnu/libc.so.6
sigprocmask@@GLIBC_2.2.5                          /lib/x86_64-linux-gnu/libc.so.6
sigprocmask@GLIBC_2.2.5                           /lib/x86_64-linux-gnu/libc.so.6
sigqueue                                          /lib/x86_64-linux-gnu/libc.so.6
sigqueue@@GLIBC_2.2.5                             /lib/x86_64-linux-gnu/libc.so.6
sigqueue@GLIBC_2.2.5                              /lib/x86_64-linux-gnu/libc.so.6
sigreturn                                         /lib/x86_64-linux-gnu/libc.so.6
sigreturn@@GLIBC_2.2.5                            /lib/x86_64-linux-gnu/libc.so.6
sigreturn@GLIBC_2.2.5                             /lib/x86_64-linux-gnu/libc.so.6
sigsetmask                                        /lib/x86_64-linux-gnu/libc.so.6
sigsetmask@@GLIBC_2.2.5                           /lib/x86_64-linux-gnu/libc.so.6
sigsetmask@GLIBC_2.2.5                            /lib/x86_64-linux-gnu/libc.so.6
sigsuspend                                        /lib/x86_64-linux-gnu/libc.so.6
sigsuspend@@GLIBC_2.2.5                           /lib/x86_64-linux-gnu/libc.so.6
sigsuspend@GLIBC_2.2.5                            /lib/x86_64-linux-gnu/libc.so.6
sigtimedwait                                      /lib/x86_64-linux-gnu/libc.so.6
sigtimedwait@@GLIBC_2.2.5                         /lib/x86_64-linux-gnu/libc.so.6
sigtimedwait@GLIBC_2.2.5                          /lib/x86_64-linux-gnu/libc.so.6
sigwait                                           /lib/x86_64-linux-gnu/libpthread.so.0
sigwait@@GLIBC_2.2.5                              /lib/x86_64-linux-gnu/libpthread.so.0
                                                  /lib/x86_64-linux-gnu/libc.so.6
sigwait@GLIBC_2.2.5                               /lib/x86_64-linux-gnu/libpthread.so.0
sigwaitinfo                                       /lib/x86_64-linux-gnu/libc.so.6
sigwaitinfo@@GLIBC_2.2.5                          /lib/x86_64-linux-gnu/libc.so.6
sigwaitinfo@GLIBC_2.2.5                           /lib/x86_64-linux-gnu/libc.so.6
sin                                               /usr/lib/gcc/x86_64-linux-gnu/4.9/../../../x86_64-linux-gnu/libm.so
sin@@GLIBC_2.2.5                                  /usr/lib/gcc/x86_64-linux-gnu/4.9/../../../x86_64-linux-gnu/libm.so
sin@GLIBC_2.2.5                                   /usr/lib/gcc/x86_64-linux-gnu/4.9/../../../x86_64-linux-gnu/libm.so
sincos                                            /usr/lib/gcc/x86_64-linux-gnu/4.9/../../../x86_64-linux-gnu/libm.so
sincos@@GLIBC_2.2.5                               /usr/lib/gcc/x86_64-linux-gnu/4.9/../../../x86_64-linux-gnu/libm.so
sincos@GLIBC_2.2.5                                /usr/lib/gcc/x86_64-linux-gnu/4.9/../../../x86_64-linux-gnu/libm.so
sincosf                                           /usr/lib/gcc/x86_64-linux-gnu/4.9/../../../x86_64-linux-gnu/libm.so
sincosf@@GLIBC_2.2.5                              /usr/lib/gcc/x86_64-linux-gnu/4.9/../../../x86_64-linux-gnu/libm.so
sincosf@GLIBC_2.2.5                               /usr/lib/gcc/x86_64-linux-gnu/4.9/../../../x86_64-linux-gnu/libm.so
sincosl                                           /usr/lib/gcc/x86_64-linux-gnu/4.9/../../../x86_64-linux-gnu/libm.so
sincosl@@GLIBC_2.2.5                              /usr/lib/gcc/x86_64-linux-gnu/4.9/../../../x86_64-linux-gnu/libm.so
sincosl@GLIBC_2.2.5                               /usr/lib/gcc/x86_64-linux-gnu/4.9/../../../x86_64-linux-gnu/libm.so
sinf                                              /usr/lib/gcc/x86_64-linux-gnu/4.9/../../../x86_64-linux-gnu/libm.so
sinf@@GLIBC_2.2.5                                 /usr/lib/gcc/x86_64-linux-gnu/4.9/../../../x86_64-linux-gnu/libm.so
sinf@GLIBC_2.2.5                                  /usr/lib/gcc/x86_64-linux-gnu/4.9/../../../x86_64-linux-gnu/libm.so
sinh                                              /usr/lib/gcc/x86_64-linux-gnu/4.9/../../../x86_64-linux-gnu/libm.so
sinh@@GLIBC_2.2.5                                 /usr/lib/gcc/x86_64-linux-gnu/4.9/../../../x86_64-linux-gnu/libm.so
sinh@GLIBC_2.2.5                                  /usr/lib/gcc/x86_64-linux-gnu/4.9/../../../x86_64-linux-gnu/libm.so
sinhf                                             /usr/lib/gcc/x86_64-linux-gnu/4.9/../../../x86_64-linux-gnu/libm.so
sinhf@@GLIBC_2.2.5                                /usr/lib/gcc/x86_64-linux-gnu/4.9/../../../x86_64-linux-gnu/libm.so
sinhf@GLIBC_2.2.5                                 /usr/lib/gcc/x86_64-linux-gnu/4.9/../../../x86_64-linux-gnu/libm.so
sinhl                                             /usr/lib/gcc/x86_64-linux-gnu/4.9/../../../x86_64-linux-gnu/libm.so
sinhl@@GLIBC_2.2.5                                /usr/lib/gcc/x86_64-linux-gnu/4.9/../../../x86_64-linux-gnu/libm.so
sinhl@GLIBC_2.2.5                                 /usr/lib/gcc/x86_64-linux-gnu/4.9/../../../x86_64-linux-gnu/libm.so
sinl                                              /usr/lib/gcc/x86_64-linux-gnu/4.9/../../../x86_64-linux-gnu/libm.so
sinl@@GLIBC_2.2.5                                 /usr/lib/gcc/x86_64-linux-gnu/4.9/../../../x86_64-linux-gnu/libm.so
sinl@GLIBC_2.2.5                                  /usr/lib/gcc/x86_64-linux-gnu/4.9/../../../x86_64-linux-gnu/libm.so
sleep                                             /lib/x86_64-linux-gnu/libc.so.6
sleep@@GLIBC_2.2.5                                /lib/x86_64-linux-gnu/libc.so.6
sleep@GLIBC_2.2.5                                 /lib/x86_64-linux-gnu/libc.so.6
                                                  /home/xyh/test/POFSwitch+DPDK+V1.0.5.3/dpdk-2.2.0/x86_64-native-linuxapp-gcc/lib/libdpdk.so
snprintf                                          /lib/x86_64-linux-gnu/libc.so.6
snprintf@@GLIBC_2.2.5                             /lib/x86_64-linux-gnu/libc.so.6
snprintf@GLIBC_2.2.5                              /lib/x86_64-linux-gnu/libc.so.6
                                                  /home/xyh/test/POFSwitch+DPDK+V1.0.5.3/dpdk-2.2.0/x86_64-native-linuxapp-gcc/lib/libdpdk.so
socket                                            /lib/x86_64-linux-gnu/libc.so.6
socket@@GLIBC_2.2.5                               /lib/x86_64-linux-gnu/libc.so.6
socket@GLIBC_2.2.5                                /lib/x86_64-linux-gnu/libc.so.6
                                                  /usr/lib/gcc/x86_64-linux-gnu/4.9/../../../x86_64-linux-gnu/librt.so
                                                  /home/xyh/test/POFSwitch+DPDK+V1.0.5.3/dpdk-2.2.0/x86_64-native-linuxapp-gcc/lib/libdpdk.so
socket_num                                        testpmd.o
                                                  parameters.o
socketpair                                        /lib/x86_64-linux-gnu/libc.so.6
socketpair@@GLIBC_2.2.5                           /lib/x86_64-linux-gnu/libc.so.6
socketpair@GLIBC_2.2.5                            /lib/x86_64-linux-gnu/libc.so.6
sprofil                                           /lib/x86_64-linux-gnu/libc.so.6
sprofil@@GLIBC_2.2.5                              /lib/x86_64-linux-gnu/libc.so.6
sprofil@GLIBC_2.2.5                               /lib/x86_64-linux-gnu/libc.so.6
sqrt                                              /usr/lib/gcc/x86_64-linux-gnu/4.9/../../../x86_64-linux-gnu/libm.so
sqrt@@GLIBC_2.2.5                                 /usr/lib/gcc/x86_64-linux-gnu/4.9/../../../x86_64-linux-gnu/libm.so
sqrt@GLIBC_2.2.5                                  /usr/lib/gcc/x86_64-linux-gnu/4.9/../../../x86_64-linux-gnu/libm.so
sqrtf                                             /usr/lib/gcc/x86_64-linux-gnu/4.9/../../../x86_64-linux-gnu/libm.so
sqrtf@@GLIBC_2.2.5                                /usr/lib/gcc/x86_64-linux-gnu/4.9/../../../x86_64-linux-gnu/libm.so
sqrtf@GLIBC_2.2.5                                 /usr/lib/gcc/x86_64-linux-gnu/4.9/../../../x86_64-linux-gnu/libm.so
sqrtl                                             /usr/lib/gcc/x86_64-linux-gnu/4.9/../../../x86_64-linux-gnu/libm.so
sqrtl@@GLIBC_2.2.5                                /usr/lib/gcc/x86_64-linux-gnu/4.9/../../../x86_64-linux-gnu/libm.so
sqrtl@GLIBC_2.2.5                                 /usr/lib/gcc/x86_64-linux-gnu/4.9/../../../x86_64-linux-gnu/libm.so
srand                                             /lib/x86_64-linux-gnu/libc.so.6
srand48_r                                         /lib/x86_64-linux-gnu/libc.so.6
srand48_r@@GLIBC_2.2.5                            /lib/x86_64-linux-gnu/libc.so.6
srand48_r@GLIBC_2.2.5                             /lib/x86_64-linux-gnu/libc.so.6
srand@@GLIBC_2.2.5                                /lib/x86_64-linux-gnu/libc.so.6
srand@GLIBC_2.2.5                                 /lib/x86_64-linux-gnu/libc.so.6
srandom                                           /lib/x86_64-linux-gnu/libc.so.6
srandom@@GLIBC_2.2.5                              /lib/x86_64-linux-gnu/libc.so.6
srandom@GLIBC_2.2.5                               /lib/x86_64-linux-gnu/libc.so.6
srandom_r                                         /lib/x86_64-linux-gnu/libc.so.6
srandom_r@@GLIBC_2.2.5                            /lib/x86_64-linux-gnu/libc.so.6
srandom_r@GLIBC_2.2.5                             /lib/x86_64-linux-gnu/libc.so.6
ssignal                                           /lib/x86_64-linux-gnu/libc.so.6
ssignal@@GLIBC_2.2.5                              /lib/x86_64-linux-gnu/libc.so.6
ssignal@GLIBC_2.2.5                               /lib/x86_64-linux-gnu/libc.so.6
start_packet_forwarding                           testpmd.o
                                                  cmdline.o
start_port                                        testpmd.o
                                                  cmdline.o
statfs                                            /lib/x86_64-linux-gnu/libc.so.6
statfs64                                          /lib/x86_64-linux-gnu/libc.so.6
statfs64@@GLIBC_2.2.5                             /lib/x86_64-linux-gnu/libc.so.6
statfs64@GLIBC_2.2.5                              /lib/x86_64-linux-gnu/libc.so.6
statfs@@GLIBC_2.2.5                               /lib/x86_64-linux-gnu/libc.so.6
statfs@GLIBC_2.2.5                                /lib/x86_64-linux-gnu/libc.so.6
statvfs64                                         /lib/x86_64-linux-gnu/libc.so.6
statvfs64@@GLIBC_2.2.5                            /lib/x86_64-linux-gnu/libc.so.6
statvfs64@GLIBC_2.2.5                             /lib/x86_64-linux-gnu/libc.so.6
step                                              /lib/x86_64-linux-gnu/libc.so.6
step@@GLIBC_2.2.5                                 /lib/x86_64-linux-gnu/libc.so.6
step@GLIBC_2.2.5                                  /lib/x86_64-linux-gnu/libc.so.6
stop_packet_forwarding                            testpmd.o
                                                  cmdline.o
stop_port                                         testpmd.o
                                                  cmdline.o
stpcpy                                            /lib/x86_64-linux-gnu/libc.so.6
stpcpy@@GLIBC_2.2.5                               /lib/x86_64-linux-gnu/libc.so.6
stpcpy@GLIBC_2.2.5                                /lib/x86_64-linux-gnu/libc.so.6
stpncpy                                           /lib/x86_64-linux-gnu/libc.so.6
stpncpy@@GLIBC_2.2.5                              /lib/x86_64-linux-gnu/libc.so.6
stpncpy@GLIBC_2.2.5                               /lib/x86_64-linux-gnu/libc.so.6
strcasecmp                                        /lib/x86_64-linux-gnu/libc.so.6
strcasecmp@@GLIBC_2.2.5                           /lib/x86_64-linux-gnu/libc.so.6
strcasecmp@GLIBC_2.2.5                            /lib/x86_64-linux-gnu/libc.so.6
strcasecmp_l                                      /lib/x86_64-linux-gnu/libc.so.6
strcasecmp_l@@GLIBC_2.3                           /lib/x86_64-linux-gnu/libc.so.6
strcasecmp_l@GLIBC_2.3                            /lib/x86_64-linux-gnu/libc.so.6
strcasestr                                        /lib/x86_64-linux-gnu/libc.so.6
strcasestr@@GLIBC_2.2.5                           /lib/x86_64-linux-gnu/libc.so.6
strcasestr@GLIBC_2.2.5                            /lib/x86_64-linux-gnu/libc.so.6
strchr                                            /lib/x86_64-linux-gnu/libc.so.6
                                                  cmdline.o
                                                  parameters.o
strchr@@GLIBC_2.2.5                               /lib/x86_64-linux-gnu/libc.so.6
strchr@GLIBC_2.2.5                                /lib/x86_64-linux-gnu/libc.so.6
                                                  /lib/x86_64-linux-gnu/libpthread.so.0
                                                  /usr/lib/gcc/x86_64-linux-gnu/4.9/../../../x86_64-linux-gnu/librt.so
                                                  /home/xyh/test/POFSwitch+DPDK+V1.0.5.3/dpdk-2.2.0/x86_64-native-linuxapp-gcc/lib/libdpdk.so
strchrnul                                         /lib/x86_64-linux-gnu/libc.so.6
strchrnul@@GLIBC_2.2.5                            /lib/x86_64-linux-gnu/libc.so.6
strchrnul@GLIBC_2.2.5                             /lib/x86_64-linux-gnu/libc.so.6
strcmp                                            /lib/x86_64-linux-gnu/libc.so.6
                                                  config.o
                                                  cmdline.o
strcmp@@GLIBC_2.2.5                               /lib/x86_64-linux-gnu/libc.so.6
strcmp@GLIBC_2.2.5                                /lib/x86_64-linux-gnu/libc.so.6
                                                  /lib/x86_64-linux-gnu/libpthread.so.0
                                                  /home/xyh/test/POFSwitch+DPDK+V1.0.5.3/dpdk-2.2.0/x86_64-native-linuxapp-gcc/lib/libdpdk.so
strcoll_l                                         /lib/x86_64-linux-gnu/libc.so.6
strcoll_l@@GLIBC_2.3                              /lib/x86_64-linux-gnu/libc.so.6
strcoll_l@GLIBC_2.3                               /lib/x86_64-linux-gnu/libc.so.6
strdup                                            /lib/x86_64-linux-gnu/libc.so.6
strdup@@GLIBC_2.2.5                               /lib/x86_64-linux-gnu/libc.so.6
strdup@GLIBC_2.2.5                                /lib/x86_64-linux-gnu/libc.so.6
strerror                                          /lib/x86_64-linux-gnu/libc.so.6
                                                  config.o
                                                  cmdline.o
strerror@@GLIBC_2.2.5                             /lib/x86_64-linux-gnu/libc.so.6
strerror@GLIBC_2.2.5                              /lib/x86_64-linux-gnu/libc.so.6
                                                  /usr/lib/gcc/x86_64-linux-gnu/4.9/../../../x86_64-linux-gnu/libdl.so
                                                  /home/xyh/test/POFSwitch+DPDK+V1.0.5.3/dpdk-2.2.0/x86_64-native-linuxapp-gcc/lib/libdpdk.so
strerror_r                                        /lib/x86_64-linux-gnu/libc.so.6
strerror_r@@GLIBC_2.2.5                           /lib/x86_64-linux-gnu/libc.so.6
strerror_r@GLIBC_2.2.5                            /lib/x86_64-linux-gnu/libc.so.6
strfmon_l                                         /lib/x86_64-linux-gnu/libc.so.6
strfmon_l@@GLIBC_2.3                              /lib/x86_64-linux-gnu/libc.so.6
strfmon_l@GLIBC_2.3                               /lib/x86_64-linux-gnu/libc.so.6
strftime_l                                        /lib/x86_64-linux-gnu/libc.so.6
strftime_l@@GLIBC_2.3                             /lib/x86_64-linux-gnu/libc.so.6
strftime_l@GLIBC_2.3                              /lib/x86_64-linux-gnu/libc.so.6
strlen                                            /lib/x86_64-linux-gnu/libc.so.6
                                                  cmdline.o
strlen@@GLIBC_2.2.5                               /lib/x86_64-linux-gnu/libc.so.6
strlen@GLIBC_2.2.5                                /lib/x86_64-linux-gnu/libc.so.6
                                                  /lib/x86_64-linux-gnu/libpthread.so.0
                                                  /usr/lib/gcc/x86_64-linux-gnu/4.9/libgcc_s.so
                                                  /usr/lib/gcc/x86_64-linux-gnu/4.9/../../../x86_64-linux-gnu/libm.so
                                                  /usr/lib/gcc/x86_64-linux-gnu/4.9/../../../x86_64-linux-gnu/librt.so
                                                  /home/xyh/test/POFSwitch+DPDK+V1.0.5.3/dpdk-2.2.0/x86_64-native-linuxapp-gcc/lib/libdpdk.so
strncasecmp                                       /lib/x86_64-linux-gnu/libc.so.6
strncasecmp@@GLIBC_2.2.5                          /lib/x86_64-linux-gnu/libc.so.6
strncasecmp@GLIBC_2.2.5                           /lib/x86_64-linux-gnu/libc.so.6
                                                  /home/xyh/test/POFSwitch+DPDK+V1.0.5.3/dpdk-2.2.0/x86_64-native-linuxapp-gcc/lib/libdpdk.so
strncasecmp_l                                     /lib/x86_64-linux-gnu/libc.so.6
strncasecmp_l@@GLIBC_2.3                          /lib/x86_64-linux-gnu/libc.so.6
strncasecmp_l@GLIBC_2.3                           /lib/x86_64-linux-gnu/libc.so.6
strndup                                           /lib/x86_64-linux-gnu/libc.so.6
strndup@@GLIBC_2.2.5                              /lib/x86_64-linux-gnu/libc.so.6
strndup@GLIBC_2.2.5                               /lib/x86_64-linux-gnu/libc.so.6
strnlen                                           /lib/x86_64-linux-gnu/libc.so.6
                                                  cmdline.o
strnlen@@GLIBC_2.2.5                              /lib/x86_64-linux-gnu/libc.so.6
strnlen@GLIBC_2.2.5                               /lib/x86_64-linux-gnu/libc.so.6
                                                  /home/xyh/test/POFSwitch+DPDK+V1.0.5.3/dpdk-2.2.0/x86_64-native-linuxapp-gcc/lib/libdpdk.so
strptime_l                                        /lib/x86_64-linux-gnu/libc.so.6
strptime_l@@GLIBC_2.3.2                           /lib/x86_64-linux-gnu/libc.so.6
strptime_l@GLIBC_2.3.2                            /lib/x86_64-linux-gnu/libc.so.6
strsep                                            /lib/x86_64-linux-gnu/libc.so.6
strsep@@GLIBC_2.2.5                               /lib/x86_64-linux-gnu/libc.so.6
strsep@GLIBC_2.2.5                                /lib/x86_64-linux-gnu/libc.so.6
strstr                                            /lib/x86_64-linux-gnu/libc.so.6
                                                  config.o
strstr@@GLIBC_2.2.5                               /lib/x86_64-linux-gnu/libc.so.6
strstr@GLIBC_2.2.5                                /lib/x86_64-linux-gnu/libc.so.6
                                                  /home/xyh/test/POFSwitch+DPDK+V1.0.5.3/dpdk-2.2.0/x86_64-native-linuxapp-gcc/lib/libdpdk.so
strtod_l                                          /lib/x86_64-linux-gnu/libc.so.6
strtod_l@@GLIBC_2.3                               /lib/x86_64-linux-gnu/libc.so.6
strtod_l@GLIBC_2.3                                /lib/x86_64-linux-gnu/libc.so.6
strtof_l                                          /lib/x86_64-linux-gnu/libc.so.6
strtof_l@@GLIBC_2.3                               /lib/x86_64-linux-gnu/libc.so.6
strtof_l@GLIBC_2.3                                /lib/x86_64-linux-gnu/libc.so.6
strtok_r                                          /lib/x86_64-linux-gnu/libc.so.6
strtok_r@@GLIBC_2.2.5                             /lib/x86_64-linux-gnu/libc.so.6
strtok_r@GLIBC_2.2.5                              /lib/x86_64-linux-gnu/libc.so.6
strtol                                            /lib/x86_64-linux-gnu/libc.so.6
                                                  parameters.o
strtol@@GLIBC_2.2.5                               /lib/x86_64-linux-gnu/libc.so.6
strtol@GLIBC_2.2.5                                /lib/x86_64-linux-gnu/libc.so.6
                                                  /home/xyh/test/POFSwitch+DPDK+V1.0.5.3/dpdk-2.2.0/x86_64-native-linuxapp-gcc/lib/libdpdk.so
strtol_l                                          /lib/x86_64-linux-gnu/libc.so.6
strtol_l@@GLIBC_2.3                               /lib/x86_64-linux-gnu/libc.so.6
strtol_l@GLIBC_2.3                                /lib/x86_64-linux-gnu/libc.so.6
strtold_l                                         /lib/x86_64-linux-gnu/libc.so.6
strtold_l@@GLIBC_2.3                              /lib/x86_64-linux-gnu/libc.so.6
strtold_l@GLIBC_2.3                               /lib/x86_64-linux-gnu/libc.so.6
strtoll                                           /lib/x86_64-linux-gnu/libc.so.6
strtoll@@GLIBC_2.2.5                              /lib/x86_64-linux-gnu/libc.so.6
strtoll@GLIBC_2.2.5                               /lib/x86_64-linux-gnu/libc.so.6
strtoll_l                                         /lib/x86_64-linux-gnu/libc.so.6
strtoll_l@@GLIBC_2.3.3                            /lib/x86_64-linux-gnu/libc.so.6
strtoll_l@GLIBC_2.3.3                             /lib/x86_64-linux-gnu/libc.so.6
strtoq                                            /lib/x86_64-linux-gnu/libc.so.6
strtoq@@GLIBC_2.2.5                               /lib/x86_64-linux-gnu/libc.so.6
strtoq@GLIBC_2.2.5                                /lib/x86_64-linux-gnu/libc.so.6
strtoul                                           /lib/x86_64-linux-gnu/libc.so.6
                                                  cmdline.o
                                                  parameters.o
strtoul@@GLIBC_2.2.5                              /lib/x86_64-linux-gnu/libc.so.6
strtoul@GLIBC_2.2.5                               /lib/x86_64-linux-gnu/libc.so.6
                                                  /home/xyh/test/POFSwitch+DPDK+V1.0.5.3/dpdk-2.2.0/x86_64-native-linuxapp-gcc/lib/libdpdk.so
strtoul_l                                         /lib/x86_64-linux-gnu/libc.so.6
strtoul_l@@GLIBC_2.3                              /lib/x86_64-linux-gnu/libc.so.6
strtoul_l@GLIBC_2.3                               /lib/x86_64-linux-gnu/libc.so.6
strtoull                                          /lib/x86_64-linux-gnu/libc.so.6
                                                  cmdline.o
                                                  parameters.o
strtoull@@GLIBC_2.2.5                             /lib/x86_64-linux-gnu/libc.so.6
strtoull@GLIBC_2.2.5                              /lib/x86_64-linux-gnu/libc.so.6
                                                  /home/xyh/test/POFSwitch+DPDK+V1.0.5.3/dpdk-2.2.0/x86_64-native-linuxapp-gcc/lib/libdpdk.so
strtoull_l                                        /lib/x86_64-linux-gnu/libc.so.6
strtoull_l@@GLIBC_2.3.3                           /lib/x86_64-linux-gnu/libc.so.6
strtoull_l@GLIBC_2.3.3                            /lib/x86_64-linux-gnu/libc.so.6
strtouq                                           /lib/x86_64-linux-gnu/libc.so.6
strtouq@@GLIBC_2.2.5                              /lib/x86_64-linux-gnu/libc.so.6
strtouq@GLIBC_2.2.5                               /lib/x86_64-linux-gnu/libc.so.6
strverscmp                                        /lib/x86_64-linux-gnu/libc.so.6
strverscmp@@GLIBC_2.2.5                           /lib/x86_64-linux-gnu/libc.so.6
strverscmp@GLIBC_2.2.5                            /lib/x86_64-linux-gnu/libc.so.6
strxfrm_l                                         /lib/x86_64-linux-gnu/libc.so.6
strxfrm_l@@GLIBC_2.3                              /lib/x86_64-linux-gnu/libc.so.6
strxfrm_l@GLIBC_2.3                               /lib/x86_64-linux-gnu/libc.so.6
swapcontext                                       /lib/x86_64-linux-gnu/libc.so.6
swapcontext@@GLIBC_2.2.5                          /lib/x86_64-linux-gnu/libc.so.6
swapcontext@GLIBC_2.2.5                           /lib/x86_64-linux-gnu/libc.so.6
swapoff                                           /lib/x86_64-linux-gnu/libc.so.6
swapoff@@GLIBC_2.2.5                              /lib/x86_64-linux-gnu/libc.so.6
swapoff@GLIBC_2.2.5                               /lib/x86_64-linux-gnu/libc.so.6
swapon                                            /lib/x86_64-linux-gnu/libc.so.6
swapon@@GLIBC_2.2.5                               /lib/x86_64-linux-gnu/libc.so.6
swapon@GLIBC_2.2.5                                /lib/x86_64-linux-gnu/libc.so.6
symlink                                           /lib/x86_64-linux-gnu/libc.so.6
symlink@@GLIBC_2.2.5                              /lib/x86_64-linux-gnu/libc.so.6
symlink@GLIBC_2.2.5                               /lib/x86_64-linux-gnu/libc.so.6
sysconf                                           /lib/x86_64-linux-gnu/libc.so.6
sysconf@@GLIBC_2.2.5                              /lib/x86_64-linux-gnu/libc.so.6
sysconf@GLIBC_2.2.5                               /lib/x86_64-linux-gnu/libc.so.6
                                                  /home/xyh/test/POFSwitch+DPDK+V1.0.5.3/dpdk-2.2.0/x86_64-native-linuxapp-gcc/lib/libdpdk.so
sysctl                                            /lib/x86_64-linux-gnu/libc.so.6
sysctl@@GLIBC_2.2.5                               /lib/x86_64-linux-gnu/libc.so.6
sysctl@GLIBC_2.2.5                                /lib/x86_64-linux-gnu/libc.so.6
sysv_signal                                       /lib/x86_64-linux-gnu/libc.so.6
sysv_signal@@GLIBC_2.2.5                          /lib/x86_64-linux-gnu/libc.so.6
sysv_signal@GLIBC_2.2.5                           /lib/x86_64-linux-gnu/libc.so.6
tanf                                              /usr/lib/gcc/x86_64-linux-gnu/4.9/../../../x86_64-linux-gnu/libm.so
tanf@@GLIBC_2.2.5                                 /usr/lib/gcc/x86_64-linux-gnu/4.9/../../../x86_64-linux-gnu/libm.so
tanf@GLIBC_2.2.5                                  /usr/lib/gcc/x86_64-linux-gnu/4.9/../../../x86_64-linux-gnu/libm.so
tanh                                              /usr/lib/gcc/x86_64-linux-gnu/4.9/../../../x86_64-linux-gnu/libm.so
tanh@@GLIBC_2.2.5                                 /usr/lib/gcc/x86_64-linux-gnu/4.9/../../../x86_64-linux-gnu/libm.so
tanh@GLIBC_2.2.5                                  /usr/lib/gcc/x86_64-linux-gnu/4.9/../../../x86_64-linux-gnu/libm.so
tanhf                                             /usr/lib/gcc/x86_64-linux-gnu/4.9/../../../x86_64-linux-gnu/libm.so
tanhf@@GLIBC_2.2.5                                /usr/lib/gcc/x86_64-linux-gnu/4.9/../../../x86_64-linux-gnu/libm.so
tanhf@GLIBC_2.2.5                                 /usr/lib/gcc/x86_64-linux-gnu/4.9/../../../x86_64-linux-gnu/libm.so
tanhl                                             /usr/lib/gcc/x86_64-linux-gnu/4.9/../../../x86_64-linux-gnu/libm.so
tanhl@@GLIBC_2.2.5                                /usr/lib/gcc/x86_64-linux-gnu/4.9/../../../x86_64-linux-gnu/libm.so
tanhl@GLIBC_2.2.5                                 /usr/lib/gcc/x86_64-linux-gnu/4.9/../../../x86_64-linux-gnu/libm.so
tanl                                              /usr/lib/gcc/x86_64-linux-gnu/4.9/../../../x86_64-linux-gnu/libm.so
tanl@@GLIBC_2.2.5                                 /usr/lib/gcc/x86_64-linux-gnu/4.9/../../../x86_64-linux-gnu/libm.so
tanl@GLIBC_2.2.5                                  /usr/lib/gcc/x86_64-linux-gnu/4.9/../../../x86_64-linux-gnu/libm.so
tcdrain                                           /lib/x86_64-linux-gnu/libpthread.so.0
tcdrain@@GLIBC_2.2.5                              /lib/x86_64-linux-gnu/libpthread.so.0
                                                  /lib/x86_64-linux-gnu/libc.so.6
tcdrain@GLIBC_2.2.5                               /lib/x86_64-linux-gnu/libpthread.so.0
tcgetattr                                         /lib/x86_64-linux-gnu/libc.so.6
tcgetattr@@GLIBC_2.2.5                            /lib/x86_64-linux-gnu/libc.so.6
tcgetattr@GLIBC_2.2.5                             /lib/x86_64-linux-gnu/libc.so.6
                                                  /home/xyh/test/POFSwitch+DPDK+V1.0.5.3/dpdk-2.2.0/x86_64-native-linuxapp-gcc/lib/libdpdk.so
tdelete                                           /lib/x86_64-linux-gnu/libc.so.6
tdelete@@GLIBC_2.2.5                              /lib/x86_64-linux-gnu/libc.so.6
tdelete@GLIBC_2.2.5                               /lib/x86_64-linux-gnu/libc.so.6
                                                  /lib/x86_64-linux-gnu/libpthread.so.0
tdestroy                                          /lib/x86_64-linux-gnu/libc.so.6
tdestroy@@GLIBC_2.2.5                             /lib/x86_64-linux-gnu/libc.so.6
tdestroy@GLIBC_2.2.5                              /lib/x86_64-linux-gnu/libc.so.6
test_done                                         testpmd.o
                                                  cmdline.o
textdomain                                        /lib/x86_64-linux-gnu/libc.so.6
textdomain@@GLIBC_2.2.5                           /lib/x86_64-linux-gnu/libc.so.6
textdomain@GLIBC_2.2.5                            /lib/x86_64-linux-gnu/libc.so.6
tfind                                             /lib/x86_64-linux-gnu/libc.so.6
tfind@@GLIBC_2.2.5                                /lib/x86_64-linux-gnu/libc.so.6
tfind@GLIBC_2.2.5                                 /lib/x86_64-linux-gnu/libc.so.6
                                                  /lib/x86_64-linux-gnu/libpthread.so.0
tgamma                                            /usr/lib/gcc/x86_64-linux-gnu/4.9/../../../x86_64-linux-gnu/libm.so
tgamma@@GLIBC_2.2.5                               /usr/lib/gcc/x86_64-linux-gnu/4.9/../../../x86_64-linux-gnu/libm.so
tgamma@GLIBC_2.2.5                                /usr/lib/gcc/x86_64-linux-gnu/4.9/../../../x86_64-linux-gnu/libm.so
tgammaf                                           /usr/lib/gcc/x86_64-linux-gnu/4.9/../../../x86_64-linux-gnu/libm.so
tgammaf@@GLIBC_2.2.5                              /usr/lib/gcc/x86_64-linux-gnu/4.9/../../../x86_64-linux-gnu/libm.so
tgammaf@GLIBC_2.2.5                               /usr/lib/gcc/x86_64-linux-gnu/4.9/../../../x86_64-linux-gnu/libm.so
tgammal                                           /usr/lib/gcc/x86_64-linux-gnu/4.9/../../../x86_64-linux-gnu/libm.so
tgammal@@GLIBC_2.2.5                              /usr/lib/gcc/x86_64-linux-gnu/4.9/../../../x86_64-linux-gnu/libm.so
tgammal@GLIBC_2.2.5                               /usr/lib/gcc/x86_64-linux-gnu/4.9/../../../x86_64-linux-gnu/libm.so
timelocal                                         /lib/x86_64-linux-gnu/libc.so.6
timelocal@@GLIBC_2.2.5                            /lib/x86_64-linux-gnu/libc.so.6
timelocal@GLIBC_2.2.5                             /lib/x86_64-linux-gnu/libc.so.6
times                                             /lib/x86_64-linux-gnu/libc.so.6
times@@GLIBC_2.2.5                                /lib/x86_64-linux-gnu/libc.so.6
times@GLIBC_2.2.5                                 /lib/x86_64-linux-gnu/libc.so.6
timezone                                          /lib/x86_64-linux-gnu/libc.so.6
timezone@@GLIBC_2.2.5                             /lib/x86_64-linux-gnu/libc.so.6
timezone@GLIBC_2.2.5                              /lib/x86_64-linux-gnu/libc.so.6
tmpfile64                                         /lib/x86_64-linux-gnu/libc.so.6
tmpfile64@@GLIBC_2.2.5                            /lib/x86_64-linux-gnu/libc.so.6
tmpfile64@GLIBC_2.2.5                             /lib/x86_64-linux-gnu/libc.so.6
tolower_l                                         /lib/x86_64-linux-gnu/libc.so.6
tolower_l@@GLIBC_2.3                              /lib/x86_64-linux-gnu/libc.so.6
tolower_l@GLIBC_2.3                               /lib/x86_64-linux-gnu/libc.so.6
toupper_l                                         /lib/x86_64-linux-gnu/libc.so.6
toupper_l@@GLIBC_2.3                              /lib/x86_64-linux-gnu/libc.so.6
toupper_l@GLIBC_2.3                               /lib/x86_64-linux-gnu/libc.so.6
towctrans                                         /lib/x86_64-linux-gnu/libc.so.6
towctrans@@GLIBC_2.2.5                            /lib/x86_64-linux-gnu/libc.so.6
towctrans@GLIBC_2.2.5                             /lib/x86_64-linux-gnu/libc.so.6
towctrans_l                                       /lib/x86_64-linux-gnu/libc.so.6
towctrans_l@@GLIBC_2.3                            /lib/x86_64-linux-gnu/libc.so.6
towctrans_l@GLIBC_2.3                             /lib/x86_64-linux-gnu/libc.so.6
towlower_l                                        /lib/x86_64-linux-gnu/libc.so.6
towlower_l@@GLIBC_2.3                             /lib/x86_64-linux-gnu/libc.so.6
towlower_l@GLIBC_2.3                              /lib/x86_64-linux-gnu/libc.so.6
towupper_l                                        /lib/x86_64-linux-gnu/libc.so.6
towupper_l@@GLIBC_2.3                             /lib/x86_64-linux-gnu/libc.so.6
towupper_l@GLIBC_2.3                              /lib/x86_64-linux-gnu/libc.so.6
trunc                                             /usr/lib/gcc/x86_64-linux-gnu/4.9/../../../x86_64-linux-gnu/libm.so
trunc@@GLIBC_2.2.5                                /usr/lib/gcc/x86_64-linux-gnu/4.9/../../../x86_64-linux-gnu/libm.so
trunc@GLIBC_2.2.5                                 /usr/lib/gcc/x86_64-linux-gnu/4.9/../../../x86_64-linux-gnu/libm.so
truncate64                                        /lib/x86_64-linux-gnu/libc.so.6
truncate64@@GLIBC_2.2.5                           /lib/x86_64-linux-gnu/libc.so.6
truncate64@GLIBC_2.2.5                            /lib/x86_64-linux-gnu/libc.so.6
truncf                                            /usr/lib/gcc/x86_64-linux-gnu/4.9/../../../x86_64-linux-gnu/libm.so
truncf@@GLIBC_2.2.5                               /usr/lib/gcc/x86_64-linux-gnu/4.9/../../../x86_64-linux-gnu/libm.so
truncf@GLIBC_2.2.5                                /usr/lib/gcc/x86_64-linux-gnu/4.9/../../../x86_64-linux-gnu/libm.so
truncl                                            /usr/lib/gcc/x86_64-linux-gnu/4.9/../../../x86_64-linux-gnu/libm.so
truncl@@GLIBC_2.2.5                               /usr/lib/gcc/x86_64-linux-gnu/4.9/../../../x86_64-linux-gnu/libm.so
truncl@GLIBC_2.2.5                                /usr/lib/gcc/x86_64-linux-gnu/4.9/../../../x86_64-linux-gnu/libm.so
tsearch                                           /lib/x86_64-linux-gnu/libc.so.6
tsearch@@GLIBC_2.2.5                              /lib/x86_64-linux-gnu/libc.so.6
tsearch@GLIBC_2.2.5                               /lib/x86_64-linux-gnu/libc.so.6
                                                  /lib/x86_64-linux-gnu/libpthread.so.0
ttyname_r                                         /lib/x86_64-linux-gnu/libc.so.6
ttyname_r@@GLIBC_2.2.5                            /lib/x86_64-linux-gnu/libc.so.6
ttyname_r@GLIBC_2.2.5                             /lib/x86_64-linux-gnu/libc.so.6
twalk                                             /lib/x86_64-linux-gnu/libc.so.6
twalk@@GLIBC_2.2.5                                /lib/x86_64-linux-gnu/libc.so.6
twalk@GLIBC_2.2.5                                 /lib/x86_64-linux-gnu/libc.so.6
                                                  /lib/x86_64-linux-gnu/libpthread.so.0
tx_free_thresh                                    testpmd.o
                                                  cmdline.o
                                                  parameters.o
tx_hthresh                                        testpmd.o
                                                  cmdline.o
                                                  parameters.o
tx_only_engine                                    txonly.o
                                                  config.o
                                                  testpmd.o
tx_pkt_length                                     testpmd.o
                                                  txonly.o
                                                  config.o
tx_pkt_nb_segs                                    testpmd.o
                                                  csumonly.o
                                                  txonly.o
                                                  config.o
tx_pkt_seg_lengths                                testpmd.o
                                                  csumonly.o
                                                  txonly.o
                                                  config.o
tx_pkt_split                                      testpmd.o
                                                  csumonly.o
                                                  txonly.o
                                                  config.o
tx_pthresh                                        testpmd.o
                                                  cmdline.o
                                                  parameters.o
tx_qinq_set                                       config.o
                                                  cmdline.o
tx_queue_id_is_invalid                            config.o
                                                  cmdline.o
tx_queue_infos_display                            config.o
                                                  cmdline.o
tx_queue_stats_mappings                           testpmd.o
                                                  config.o
                                                  parameters.o
tx_queue_stats_mappings_array                     testpmd.o
                                                  parameters.o
tx_ring_desc_display                              config.o
                                                  cmdline.o
tx_rs_thresh                                      testpmd.o
                                                  cmdline.o
                                                  parameters.o
tx_vlan_pvid_set                                  config.o
                                                  cmdline.o
tx_vlan_reset                                     config.o
                                                  cmdline.o
tx_vlan_set                                       config.o
                                                  cmdline.o
tx_wthresh                                        testpmd.o
                                                  cmdline.o
                                                  parameters.o
txq_flags                                         testpmd.o
                                                  parameters.o
txring_numa                                       icmpecho.o
                                                  csumonly.o
                                                  txonly.o
                                                  rxonly.o
                                                  flowgen.o
                                                  macswap.o
                                                  macfwd-retry.o
                                                  macfwd.o
                                                  iofwd.o
                                                  config.o
                                                  cmdline.o
                                                  parameters.o
                                                  testpmd.o
tzname                                            /lib/x86_64-linux-gnu/libc.so.6
tzname@@GLIBC_2.2.5                               /lib/x86_64-linux-gnu/libc.so.6
tzname@GLIBC_2.2.5                                /lib/x86_64-linux-gnu/libc.so.6
tzset                                             /lib/x86_64-linux-gnu/libc.so.6
tzset@@GLIBC_2.2.5                                /lib/x86_64-linux-gnu/libc.so.6
tzset@GLIBC_2.2.5                                 /lib/x86_64-linux-gnu/libc.so.6
ulckpwdf                                          /lib/x86_64-linux-gnu/libc.so.6
ulckpwdf@@GLIBC_2.2.5                             /lib/x86_64-linux-gnu/libc.so.6
ulckpwdf@GLIBC_2.2.5                              /lib/x86_64-linux-gnu/libc.so.6
ulimit                                            /lib/x86_64-linux-gnu/libc.so.6
ulimit@@GLIBC_2.2.5                               /lib/x86_64-linux-gnu/libc.so.6
ulimit@GLIBC_2.2.5                                /lib/x86_64-linux-gnu/libc.so.6
umask                                             /lib/x86_64-linux-gnu/libc.so.6
umask@@GLIBC_2.2.5                                /lib/x86_64-linux-gnu/libc.so.6
umask@GLIBC_2.2.5                                 /lib/x86_64-linux-gnu/libc.so.6
umount                                            /lib/x86_64-linux-gnu/libc.so.6
umount2                                           /lib/x86_64-linux-gnu/libc.so.6
umount2@@GLIBC_2.2.5                              /lib/x86_64-linux-gnu/libc.so.6
umount2@GLIBC_2.2.5                               /lib/x86_64-linux-gnu/libc.so.6
umount@@GLIBC_2.2.5                               /lib/x86_64-linux-gnu/libc.so.6
umount@GLIBC_2.2.5                                /lib/x86_64-linux-gnu/libc.so.6
uname                                             /lib/x86_64-linux-gnu/libc.so.6
uname@@GLIBC_2.2.5                                /lib/x86_64-linux-gnu/libc.so.6
uname@GLIBC_2.2.5                                 /lib/x86_64-linux-gnu/libc.so.6
ungetc                                            /lib/x86_64-linux-gnu/libc.so.6
ungetc@@GLIBC_2.2.5                               /lib/x86_64-linux-gnu/libc.so.6
ungetc@GLIBC_2.2.5                                /lib/x86_64-linux-gnu/libc.so.6
unlink                                            /lib/x86_64-linux-gnu/libc.so.6
unlink@@GLIBC_2.2.5                               /lib/x86_64-linux-gnu/libc.so.6
unlink@GLIBC_2.2.5                                /lib/x86_64-linux-gnu/libc.so.6
                                                  /lib/x86_64-linux-gnu/libpthread.so.0
                                                  /usr/lib/gcc/x86_64-linux-gnu/4.9/../../../x86_64-linux-gnu/librt.so
                                                  /home/xyh/test/POFSwitch+DPDK+V1.0.5.3/dpdk-2.2.0/x86_64-native-linuxapp-gcc/lib/libdpdk.so
unsetenv                                          /lib/x86_64-linux-gnu/libc.so.6
unsetenv@@GLIBC_2.2.5                             /lib/x86_64-linux-gnu/libc.so.6
unsetenv@GLIBC_2.2.5                              /lib/x86_64-linux-gnu/libc.so.6
updwtmp                                           /lib/x86_64-linux-gnu/libc.so.6
updwtmp@@GLIBC_2.2.5                              /lib/x86_64-linux-gnu/libc.so.6
updwtmp@GLIBC_2.2.5                               /lib/x86_64-linux-gnu/libc.so.6
uselocale                                         /lib/x86_64-linux-gnu/libc.so.6
uselocale@@GLIBC_2.3                              /lib/x86_64-linux-gnu/libc.so.6
uselocale@GLIBC_2.3                               /lib/x86_64-linux-gnu/libc.so.6
utimes                                            /lib/x86_64-linux-gnu/libc.so.6
utimes@@GLIBC_2.2.5                               /lib/x86_64-linux-gnu/libc.so.6
utimes@GLIBC_2.2.5                                /lib/x86_64-linux-gnu/libc.so.6
utmpname                                          /lib/x86_64-linux-gnu/libc.so.6
utmpname@@GLIBC_2.2.5                             /lib/x86_64-linux-gnu/libc.so.6
utmpname@GLIBC_2.2.5                              /lib/x86_64-linux-gnu/libc.so.6
valloc                                            /lib/x86_64-linux-gnu/libc.so.6
valloc@@GLIBC_2.2.5                               /lib/x86_64-linux-gnu/libc.so.6
valloc@GLIBC_2.2.5                                /lib/x86_64-linux-gnu/libc.so.6
vasprintf                                         /lib/x86_64-linux-gnu/libc.so.6
vasprintf@@GLIBC_2.2.5                            /lib/x86_64-linux-gnu/libc.so.6
vasprintf@GLIBC_2.2.5                             /lib/x86_64-linux-gnu/libc.so.6
vdprintf                                          /lib/x86_64-linux-gnu/libc.so.6
vdprintf@@GLIBC_2.2.5                             /lib/x86_64-linux-gnu/libc.so.6
vdprintf@GLIBC_2.2.5                              /lib/x86_64-linux-gnu/libc.so.6
verbose_level                                     testpmd.o
                                                  icmpecho.o
                                                  csumonly.o
                                                  txonly.o
                                                  rxonly.o
                                                  config.o
versionsort64                                     /lib/x86_64-linux-gnu/libc.so.6
versionsort64@@GLIBC_2.2.5                        /lib/x86_64-linux-gnu/libc.so.6
versionsort64@GLIBC_2.2.5                         /lib/x86_64-linux-gnu/libc.so.6
vfork                                             /lib/x86_64-linux-gnu/libc.so.6
vfork@@GLIBC_2.2.5                                /lib/x86_64-linux-gnu/libc.so.6
vfscanf                                           /lib/x86_64-linux-gnu/libc.so.6
vfscanf@@GLIBC_2.2.5                              /lib/x86_64-linux-gnu/libc.so.6
vfscanf@GLIBC_2.2.5                               /lib/x86_64-linux-gnu/libc.so.6
vfwprintf                                         /lib/x86_64-linux-gnu/libc.so.6
vfwprintf@@GLIBC_2.2.5                            /lib/x86_64-linux-gnu/libc.so.6
vfwprintf@GLIBC_2.2.5                             /lib/x86_64-linux-gnu/libc.so.6
vfwscanf                                          /lib/x86_64-linux-gnu/libc.so.6
vfwscanf@@GLIBC_2.2.5                             /lib/x86_64-linux-gnu/libc.so.6
vfwscanf@GLIBC_2.2.5                              /lib/x86_64-linux-gnu/libc.so.6
vlan_extend_set                                   config.o
                                                  cmdline.o
vlan_tags                                         testpmd.o
vlan_tpid_set                                     config.o
                                                  cmdline.o
vscanf                                            /lib/x86_64-linux-gnu/libc.so.6
vscanf@@GLIBC_2.2.5                               /lib/x86_64-linux-gnu/libc.so.6
vscanf@GLIBC_2.2.5                                /lib/x86_64-linux-gnu/libc.so.6
vsnprintf                                         /lib/x86_64-linux-gnu/libc.so.6
vsnprintf@@GLIBC_2.2.5                            /lib/x86_64-linux-gnu/libc.so.6
vsnprintf@GLIBC_2.2.5                             /lib/x86_64-linux-gnu/libc.so.6
vsprintf                                          /lib/x86_64-linux-gnu/libc.so.6
vsprintf@@GLIBC_2.2.5                             /lib/x86_64-linux-gnu/libc.so.6
vsprintf@GLIBC_2.2.5                              /lib/x86_64-linux-gnu/libc.so.6
vsscanf                                           /lib/x86_64-linux-gnu/libc.so.6
vsscanf@@GLIBC_2.2.5                              /lib/x86_64-linux-gnu/libc.so.6
vsscanf@GLIBC_2.2.5                               /lib/x86_64-linux-gnu/libc.so.6
vswprintf                                         /lib/x86_64-linux-gnu/libc.so.6
vswprintf@@GLIBC_2.2.5                            /lib/x86_64-linux-gnu/libc.so.6
vswprintf@GLIBC_2.2.5                             /lib/x86_64-linux-gnu/libc.so.6
wait                                              /lib/x86_64-linux-gnu/libpthread.so.0
wait3                                             /lib/x86_64-linux-gnu/libc.so.6
wait3@@GLIBC_2.2.5                                /lib/x86_64-linux-gnu/libc.so.6
wait3@GLIBC_2.2.5                                 /lib/x86_64-linux-gnu/libc.so.6
wait4                                             /lib/x86_64-linux-gnu/libc.so.6
wait4@@GLIBC_2.2.5                                /lib/x86_64-linux-gnu/libc.so.6
wait4@GLIBC_2.2.5                                 /lib/x86_64-linux-gnu/libc.so.6
wait@@GLIBC_2.2.5                                 /lib/x86_64-linux-gnu/libpthread.so.0
                                                  /lib/x86_64-linux-gnu/libc.so.6
wait@GLIBC_2.2.5                                  /lib/x86_64-linux-gnu/libpthread.so.0
waitid                                            /lib/x86_64-linux-gnu/libc.so.6
waitid@@GLIBC_2.2.5                               /lib/x86_64-linux-gnu/libc.so.6
waitid@GLIBC_2.2.5                                /lib/x86_64-linux-gnu/libc.so.6
waitpid                                           /lib/x86_64-linux-gnu/libpthread.so.0
waitpid@@GLIBC_2.2.5                              /lib/x86_64-linux-gnu/libpthread.so.0
                                                  /lib/x86_64-linux-gnu/libc.so.6
waitpid@GLIBC_2.2.5                               /lib/x86_64-linux-gnu/libpthread.so.0
wcpcpy                                            /lib/x86_64-linux-gnu/libc.so.6
wcpcpy@@GLIBC_2.2.5                               /lib/x86_64-linux-gnu/libc.so.6
wcpcpy@GLIBC_2.2.5                                /lib/x86_64-linux-gnu/libc.so.6
wcpncpy                                           /lib/x86_64-linux-gnu/libc.so.6
wcpncpy@@GLIBC_2.2.5                              /lib/x86_64-linux-gnu/libc.so.6
wcpncpy@GLIBC_2.2.5                               /lib/x86_64-linux-gnu/libc.so.6
wcrtomb                                           /lib/x86_64-linux-gnu/libc.so.6
wcrtomb@@GLIBC_2.2.5                              /lib/x86_64-linux-gnu/libc.so.6
wcrtomb@GLIBC_2.2.5                               /lib/x86_64-linux-gnu/libc.so.6
wcscasecmp                                        /lib/x86_64-linux-gnu/libc.so.6
wcscasecmp@@GLIBC_2.2.5                           /lib/x86_64-linux-gnu/libc.so.6
wcscasecmp@GLIBC_2.2.5                            /lib/x86_64-linux-gnu/libc.so.6
wcscasecmp_l                                      /lib/x86_64-linux-gnu/libc.so.6
wcscasecmp_l@@GLIBC_2.3                           /lib/x86_64-linux-gnu/libc.so.6
wcscasecmp_l@GLIBC_2.3                            /lib/x86_64-linux-gnu/libc.so.6
wcscat                                            /lib/x86_64-linux-gnu/libc.so.6
wcscat@@GLIBC_2.2.5                               /lib/x86_64-linux-gnu/libc.so.6
wcscat@GLIBC_2.2.5                                /lib/x86_64-linux-gnu/libc.so.6
wcschr                                            /lib/x86_64-linux-gnu/libc.so.6
wcschr@@GLIBC_2.2.5                               /lib/x86_64-linux-gnu/libc.so.6
wcschr@GLIBC_2.2.5                                /lib/x86_64-linux-gnu/libc.so.6
wcschrnul                                         /lib/x86_64-linux-gnu/libc.so.6
wcschrnul@@GLIBC_2.2.5                            /lib/x86_64-linux-gnu/libc.so.6
wcschrnul@GLIBC_2.2.5                             /lib/x86_64-linux-gnu/libc.so.6
wcscoll                                           /lib/x86_64-linux-gnu/libc.so.6
wcscoll@@GLIBC_2.2.5                              /lib/x86_64-linux-gnu/libc.so.6
wcscoll@GLIBC_2.2.5                               /lib/x86_64-linux-gnu/libc.so.6
wcscoll_l                                         /lib/x86_64-linux-gnu/libc.so.6
wcscoll_l@@GLIBC_2.3                              /lib/x86_64-linux-gnu/libc.so.6
wcscoll_l@GLIBC_2.3                               /lib/x86_64-linux-gnu/libc.so.6
wcsftime_l                                        /lib/x86_64-linux-gnu/libc.so.6
wcsftime_l@@GLIBC_2.3                             /lib/x86_64-linux-gnu/libc.so.6
wcsftime_l@GLIBC_2.3                              /lib/x86_64-linux-gnu/libc.so.6
wcslen                                            /lib/x86_64-linux-gnu/libc.so.6
wcslen@@GLIBC_2.2.5                               /lib/x86_64-linux-gnu/libc.so.6
wcslen@GLIBC_2.2.5                                /lib/x86_64-linux-gnu/libc.so.6
wcsncasecmp                                       /lib/x86_64-linux-gnu/libc.so.6
wcsncasecmp@@GLIBC_2.2.5                          /lib/x86_64-linux-gnu/libc.so.6
wcsncasecmp@GLIBC_2.2.5                           /lib/x86_64-linux-gnu/libc.so.6
wcsncasecmp_l                                     /lib/x86_64-linux-gnu/libc.so.6
wcsncasecmp_l@@GLIBC_2.3                          /lib/x86_64-linux-gnu/libc.so.6
wcsncasecmp_l@GLIBC_2.3                           /lib/x86_64-linux-gnu/libc.so.6
wcsncpy                                           /lib/x86_64-linux-gnu/libc.so.6
wcsncpy@@GLIBC_2.2.5                              /lib/x86_64-linux-gnu/libc.so.6
wcsncpy@GLIBC_2.2.5                               /lib/x86_64-linux-gnu/libc.so.6
wcsnlen                                           /lib/x86_64-linux-gnu/libc.so.6
wcsnlen@@GLIBC_2.2.5                              /lib/x86_64-linux-gnu/libc.so.6
wcsnlen@GLIBC_2.2.5                               /lib/x86_64-linux-gnu/libc.so.6
wcsnrtombs                                        /lib/x86_64-linux-gnu/libc.so.6
wcsnrtombs@@GLIBC_2.2.5                           /lib/x86_64-linux-gnu/libc.so.6
wcsnrtombs@GLIBC_2.2.5                            /lib/x86_64-linux-gnu/libc.so.6
wcsrtombs                                         /lib/x86_64-linux-gnu/libc.so.6
wcsrtombs@@GLIBC_2.2.5                            /lib/x86_64-linux-gnu/libc.so.6
wcsrtombs@GLIBC_2.2.5                             /lib/x86_64-linux-gnu/libc.so.6
wcstod_l                                          /lib/x86_64-linux-gnu/libc.so.6
wcstod_l@@GLIBC_2.3                               /lib/x86_64-linux-gnu/libc.so.6
wcstod_l@GLIBC_2.3                                /lib/x86_64-linux-gnu/libc.so.6
wcstof_l                                          /lib/x86_64-linux-gnu/libc.so.6
wcstof_l@@GLIBC_2.3                               /lib/x86_64-linux-gnu/libc.so.6
wcstof_l@GLIBC_2.3                                /lib/x86_64-linux-gnu/libc.so.6
wcstol                                            /lib/x86_64-linux-gnu/libc.so.6
wcstol@@GLIBC_2.2.5                               /lib/x86_64-linux-gnu/libc.so.6
wcstol@GLIBC_2.2.5                                /lib/x86_64-linux-gnu/libc.so.6
wcstol_l                                          /lib/x86_64-linux-gnu/libc.so.6
wcstol_l@@GLIBC_2.3                               /lib/x86_64-linux-gnu/libc.so.6
wcstol_l@GLIBC_2.3                                /lib/x86_64-linux-gnu/libc.so.6
wcstold_l                                         /lib/x86_64-linux-gnu/libc.so.6
wcstold_l@@GLIBC_2.3                              /lib/x86_64-linux-gnu/libc.so.6
wcstold_l@GLIBC_2.3                               /lib/x86_64-linux-gnu/libc.so.6
wcstoll                                           /lib/x86_64-linux-gnu/libc.so.6
wcstoll@@GLIBC_2.2.5                              /lib/x86_64-linux-gnu/libc.so.6
wcstoll@GLIBC_2.2.5                               /lib/x86_64-linux-gnu/libc.so.6
wcstoll_l                                         /lib/x86_64-linux-gnu/libc.so.6
wcstoll_l@@GLIBC_2.3                              /lib/x86_64-linux-gnu/libc.so.6
wcstoll_l@GLIBC_2.3                               /lib/x86_64-linux-gnu/libc.so.6
wcstoq                                            /lib/x86_64-linux-gnu/libc.so.6
wcstoq@@GLIBC_2.2.5                               /lib/x86_64-linux-gnu/libc.so.6
wcstoq@GLIBC_2.2.5                                /lib/x86_64-linux-gnu/libc.so.6
wcstoul                                           /lib/x86_64-linux-gnu/libc.so.6
wcstoul@@GLIBC_2.2.5                              /lib/x86_64-linux-gnu/libc.so.6
wcstoul@GLIBC_2.2.5                               /lib/x86_64-linux-gnu/libc.so.6
wcstoul_l                                         /lib/x86_64-linux-gnu/libc.so.6
wcstoul_l@@GLIBC_2.3                              /lib/x86_64-linux-gnu/libc.so.6
wcstoul_l@GLIBC_2.3                               /lib/x86_64-linux-gnu/libc.so.6
wcstoull                                          /lib/x86_64-linux-gnu/libc.so.6
wcstoull@@GLIBC_2.2.5                             /lib/x86_64-linux-gnu/libc.so.6
wcstoull@GLIBC_2.2.5                              /lib/x86_64-linux-gnu/libc.so.6
wcstoull_l                                        /lib/x86_64-linux-gnu/libc.so.6
wcstoull_l@@GLIBC_2.3                             /lib/x86_64-linux-gnu/libc.so.6
wcstoull_l@GLIBC_2.3                              /lib/x86_64-linux-gnu/libc.so.6
wcstouq                                           /lib/x86_64-linux-gnu/libc.so.6
wcstouq@@GLIBC_2.2.5                              /lib/x86_64-linux-gnu/libc.so.6
wcstouq@GLIBC_2.2.5                               /lib/x86_64-linux-gnu/libc.so.6
wcswcs                                            /lib/x86_64-linux-gnu/libc.so.6
wcswcs@@GLIBC_2.2.5                               /lib/x86_64-linux-gnu/libc.so.6
wcswcs@GLIBC_2.2.5                                /lib/x86_64-linux-gnu/libc.so.6
wcsxfrm_l                                         /lib/x86_64-linux-gnu/libc.so.6
wcsxfrm_l@@GLIBC_2.3                              /lib/x86_64-linux-gnu/libc.so.6
wcsxfrm_l@GLIBC_2.3                               /lib/x86_64-linux-gnu/libc.so.6
wctrans                                           /lib/x86_64-linux-gnu/libc.so.6
wctrans@@GLIBC_2.2.5                              /lib/x86_64-linux-gnu/libc.so.6
wctrans@GLIBC_2.2.5                               /lib/x86_64-linux-gnu/libc.so.6
wctrans_l                                         /lib/x86_64-linux-gnu/libc.so.6
wctrans_l@@GLIBC_2.3                              /lib/x86_64-linux-gnu/libc.so.6
wctrans_l@GLIBC_2.3                               /lib/x86_64-linux-gnu/libc.so.6
wctype                                            /lib/x86_64-linux-gnu/libc.so.6
wctype@@GLIBC_2.2.5                               /lib/x86_64-linux-gnu/libc.so.6
wctype@GLIBC_2.2.5                                /lib/x86_64-linux-gnu/libc.so.6
wctype_l                                          /lib/x86_64-linux-gnu/libc.so.6
wctype_l@@GLIBC_2.3                               /lib/x86_64-linux-gnu/libc.so.6
wctype_l@GLIBC_2.3                                /lib/x86_64-linux-gnu/libc.so.6
wmemcpy                                           /lib/x86_64-linux-gnu/libc.so.6
wmemcpy@@GLIBC_2.2.5                              /lib/x86_64-linux-gnu/libc.so.6
wmemcpy@GLIBC_2.2.5                               /lib/x86_64-linux-gnu/libc.so.6
wmemmove                                          /lib/x86_64-linux-gnu/libc.so.6
wmemmove@@GLIBC_2.2.5                             /lib/x86_64-linux-gnu/libc.so.6
wmemmove@GLIBC_2.2.5                              /lib/x86_64-linux-gnu/libc.so.6
wmempcpy                                          /lib/x86_64-linux-gnu/libc.so.6
wmempcpy@@GLIBC_2.2.5                             /lib/x86_64-linux-gnu/libc.so.6
wmempcpy@GLIBC_2.2.5                              /lib/x86_64-linux-gnu/libc.so.6
wmemset                                           /lib/x86_64-linux-gnu/libc.so.6
wmemset@@GLIBC_2.2.5                              /lib/x86_64-linux-gnu/libc.so.6
wmemset@GLIBC_2.2.5                               /lib/x86_64-linux-gnu/libc.so.6
write                                             /lib/x86_64-linux-gnu/libpthread.so.0
write@@GLIBC_2.2.5                                /lib/x86_64-linux-gnu/libpthread.so.0
                                                  /lib/x86_64-linux-gnu/libc.so.6
write@GLIBC_2.2.5                                 /lib/x86_64-linux-gnu/libpthread.so.0
                                                  /usr/lib/gcc/x86_64-linux-gnu/4.9/../../../x86_64-linux-gnu/librt.so
                                                  /home/xyh/test/POFSwitch+DPDK+V1.0.5.3/dpdk-2.2.0/x86_64-native-linuxapp-gcc/lib/libdpdk.so
writev                                            /lib/x86_64-linux-gnu/libc.so.6
writev@@GLIBC_2.2.5                               /lib/x86_64-linux-gnu/libc.so.6
writev@GLIBC_2.2.5                                /lib/x86_64-linux-gnu/libc.so.6
y0l                                               /usr/lib/gcc/x86_64-linux-gnu/4.9/../../../x86_64-linux-gnu/libm.so
y0l@@GLIBC_2.2.5                                  /usr/lib/gcc/x86_64-linux-gnu/4.9/../../../x86_64-linux-gnu/libm.so
y0l@GLIBC_2.2.5                                   /usr/lib/gcc/x86_64-linux-gnu/4.9/../../../x86_64-linux-gnu/libm.so
y1l                                               /usr/lib/gcc/x86_64-linux-gnu/4.9/../../../x86_64-linux-gnu/libm.so
y1l@@GLIBC_2.2.5                                  /usr/lib/gcc/x86_64-linux-gnu/4.9/../../../x86_64-linux-gnu/libm.so
y1l@GLIBC_2.2.5                                   /usr/lib/gcc/x86_64-linux-gnu/4.9/../../../x86_64-linux-gnu/libm.so
ynl                                               /usr/lib/gcc/x86_64-linux-gnu/4.9/../../../x86_64-linux-gnu/libm.so
ynl@@GLIBC_2.2.5                                  /usr/lib/gcc/x86_64-linux-gnu/4.9/../../../x86_64-linux-gnu/libm.so
ynl@GLIBC_2.2.5                                   /usr/lib/gcc/x86_64-linux-gnu/4.9/../../../x86_64-linux-gnu/libm.so
